ccopy_reg
_reconstructor
p1
(ctensorflow.contrib.learn.python.learn.preprocessing.text
VocabularyProcessor
p2
c__builtin__
object
p3
NtRp4
(dp5
S'vocabulary_'
p6
g1
(ctensorflow.contrib.learn.python.learn.preprocessing.categorical_vocabulary
CategoricalVocabulary
p7
g3
NtRp8
(dp9
S'_freeze'
p10
I01
sS'_unknown_token'
p11
S'<UNK>'
p12
sS'_support_reverse'
p13
I01
sS'_freq'
p14
ccollections
defaultdict
p15
(c__builtin__
int
p16
tRp17
S'reboot'
p18
I1
sS'four'
p19
I8
sS'protest'
p20
I5
sS'gested'
p21
I1
sS'asian'
p22
I2
sS'climb'
p23
I1
sS'overemphasi'
p24
I1
sS'captain'
p25
I2
sS'hate'
p26
I2
sS'consider'
p27
I1
sS'whose'
p28
I5
sS'accus'
p29
I7
sS'gad'
p30
I1
sS'\xef\xbf\xbd\xef\xbf\xbd\xef\xbf\xbdbeauti'
p31
I1
sS'aug'
p32
I1
sS'tweet'
p33
I1
sS'illustr'
p34
I1
sS'swap'
p35
I1
sS'judg'
p36
I1
sS'lord'
p37
I1
sS'hedg'
p38
I1
sS'pride'
p39
I1
sS'worth'
p40
I2
sS'winfrey'
p41
I1
sS'everi'
p42
I3
sS'risk'
p43
I2
sS'hadn\xef\xbf\xbd\xef\xbf\xbd\xef\xbf\xbdt'
p44
I1
sS'rise'
p45
I3
sS'voic'
p46
I1
sS'tenni'
p47
I2
sS'jack'
p48
I1
sS'govern'
p49
I12
sS'affect'
p50
I1
sS'meddl'
p51
I2
sS'haven\xef\xbf\xbd\xef\xbf\xbd\xef\xbf\xbdt'
p52
I1
sS'school'
p53
I5
sS'leonov'
p54
I1
sS'showcas'
p55
I1
sS'wednesday'
p56
I6
sS'correct'
p57
I1
sS'tragedi'
p58
I1
sS'sleep'
p59
I2
sS'reinvent'
p60
I1
sS'wept'
p61
I1
sS'reimburs'
p62
I1
sS'enjoy'
p63
I3
sS'vladimir'
p64
I1
sS'deutsch'
p65
I1
sS'miller'
p66
I1
sS'direct'
p67
I2
sS'second'
p68
I10
sS'street'
p69
I1
sS'277'
p70
I1
sS'n'
I1
sS'even'
p71
I6
sS'wyatt'
p72
I1
sS'brexit'
p73
I3
sS'oldest'
p74
I2
sS'ghiti'
p75
I1
sS'neg'
p76
I1
sS'beaten'
p77
I1
sS'lightn'
p78
I1
sS'calcul'
p79
I1
sS'spokesman'
p80
I2
sS'filmmak'
p81
I3
sS'pin'
p82
I1
sS'conduct'
p83
I2
sS'new'
p84
I37
sS'net'
p85
I1
sS'ever'
p86
I2
sS'told'
p87
I11
sS'meg'
p88
I1
sS'statehood'
p89
I1
sS'mel'
p90
I1
sS'men'
p91
I2
sS'orthodoxi'
p92
I1
sS'goalkeep'
p93
I1
sS'met'
p94
I4
sS'china'
p95
I3
sS'kicker'
p96
I1
sS'103'
p97
I1
sS'105'
p98
I1
sS'incom'
p99
I1
sS'\xef\xbf\xbd\xef\xbf\xbd\xef\xbf\xbdif'
p100
I1
sS'daughter'
p101
I2
sS'auction'
p102
I1
sS'militari'
p103
I5
sS'anymor'
p104
I1
sS'jame'
p105
I4
sS'harass'
p106
I2
sS'omar'
p107
I2
sS'\xce\xbeteas'
p108
I1
sS'eilidh'
p109
I1
sS'studi'
p110
I2
sS'apart'
p111
I1
sS'jami'
p112
I2
sS'theori'
p113
I1
sS'counti'
p114
I1
sS'golden'
p115
I1
sS'volunt'
p116
I1
sS'campaign'
p117
I24
sS'newspap'
p118
I1
sS'furiou'
p119
I1
sS'bro'
p120
I1
sS'bilden'
p121
I2
sS'middlesbrough'
p122
I1
sS'colleg'
p123
I1
sS'stern'
p124
I1
sS'total'
p125
I1
sS'unit'
p126
I15
sS'plot'
p127
I1
sS'plow'
p128
I1
sS'describ'
p129
I1
sS'would'
p130
I7
sS'palestinian'
p131
I2
sS'liftoff'
p132
I1
sS'insult'
p133
I2
sS'call'
p134
I19
sS'asset'
p135
I2
sS'spike'
p136
I1
sS'strike'
p137
I1
sS'indiana'
p138
I1
sS'tell'
p139
I6
sS'7ft'
p140
I1
sS'musk'
p141
I3
sS'mush'
p142
I1
sS'oscar'
p143
I14
sS'relat'
p144
I4
sS'notic'
p145
I1
sS'hurt'
p146
I2
sS'warn'
p147
I3
sS'phone'
p148
I5
sS'connecticut'
p149
I1
sS'warm'
p150
I2
sS'adult'
p151
I2
sS'huddersfield'
p152
I1
sS'yard'
p153
I1
sS'hold'
p154
I4
sS'dietmar'
p155
I1
sS'must'
p156
I1
sS'shoot'
p157
I1
sS'accid'
p158
I1
sS'1993'
p159
I1
sS'join'
p160
I7
sS'room'
p161
I3
sS'restor'
p162
I1
sS'ml'
p163
I1
sS'mo'
p164
I2
sS'work'
p165
I13
sS'worn'
p166
I1
sS'wors'
p167
I2
sS'mp'
p168
I1
sS'mr'
p169
I2
sS'that\xce\xbemoth'
p170
I1
sS'climat'
p171
I2
sS'give'
p172
I3
sS'household'
p173
I1
sS'fay'
p174
I3
sS'caution'
p175
I2
sS'british'
p176
I8
sS'want'
p177
I6
sS'david'
p178
I6
sS'attract'
p179
I2
sS'at\xce\xbehow'
p180
I1
sS'end'
p181
I6
sS'liam'
p182
I1
sS'turn'
p183
I3
sS'polic'
p184
I6
sS'travel'
p185
I8
sS'song'
p186
I1
sS'length'
p187
I1
sS'ceremoni'
p188
I1
sS'fals'
p189
I3
sS'hot'
p190
I1
sS'lindsey'
p191
I1
sS'interview'
p192
I3
sS'gate'
p193
I2
sS'negoti'
p194
I1
sS'polit'
p195
I9
sS'musk\xef\xbf\xbd\xef\xbf\xbd\xef\xbf\xbd'
p196
I3
sS'chines'
p197
I4
sS'earlier'
p198
I2
sS'substanc'
p199
I1
sS'lab'
p200
I1
sS'rowl\xef\xbf\xbd\xef\xbf\xbd'
p201
I1
sS'wrong'
p202
I2
sS'teenag'
p203
I1
sS'beauti'
p204
I2
sS'endang'
p205
I1
sS'law'
p206
I9
sS'averag'
p207
I1
sS'reshap'
p208
I1
sS'attempt'
p209
I4
sS'third'
p210
I8
sS'amid'
p211
I3
sS'revolt'
p212
I1
sS'exclud'
p213
I2
sS'receiv'
p214
I3
sS'maintain'
p215
I1
sS'green'
p216
I1
sS'capitalist'
p217
I1
sS'enter'
p218
I4
sS'exclus'
p219
I1
sS'amit'
p220
I2
sS'order'
p221
I3
sS'amir'
p222
I1
sS'origin'
p223
I3
sS'adul'
p224
I1
sS'offici'
p225
I15
sS'murray'
p226
I4
sS'london'
p227
I1
sS'incid'
p228
I1
sS'scrap'
p229
I2
sS'of\xef\xbf\xbd\xef\xbf\xbd'
p230
I1
sS'unpreced'
p231
I1
sS'fit'
p232
I1
sS'crew'
p233
I2
sS'better'
p234
I1
sS'offic'
p235
I7
sS'fade'
p236
I1
sS'gymnast'
p237
I1
sS'wars\xef\xbf\xbd\xef\xbf\xbd\xef\xbf\xbd'
p238
I1
sS'easier'
p239
I1
sS'bingham'
p240
I1
sS'theo'
p241
I1
sS'anim'
p242
I1
sS'iowa'
p243
I1
sS'viola'
p244
I2
sS'promin'
p245
I1
sS'workout'
p246
I1
sS'welterweight'
p247
I1
sS'sach'
p248
I2
sS'break'
p249
I3
sS'caterpillar'
p250
I1
sS'promis'
p251
I7
sS'suitor'
p252
I1
sS'surgic'
p253
I1
sS'bank'
p254
I3
sS'choic'
p255
I2
sS'tendenc'
p256
I1
sS'alex'
p257
I2
sS'victori'
p258
I6
sS'debut'
p259
I4
sS'smartphon'
p260
I5
sS'bonu'
p261
I4
sS'luca'
p262
I1
sS'went'
p263
I3
sS'european'
p264
I7
sS'oblig'
p265
I1
sS'side'
p266
I6
sS'bond'
p267
I2
sS'kiper'
p268
I1
sS'moviego'
p269
I1
sS'liga'
p270
I1
sS'navi'
p271
I4
sS'resum'
p272
I1
sS'enorm'
p273
I1
sS'arduou'
p274
I2
sS'oppos'
p275
I1
sS'flock'
p276
I1
sS'saturday'
p277
I12
sS'contend'
p278
I1
sS'oprah'
p279
I1
sS'heseltin'
p280
I1
sS'\xef\xbf\xbd\xef\xbf\xbd\xef\xbf\xbdfa\xef\xbf\xbd\xef\xbf\xbd'
p281
I1
sS'newli'
p282
I2
sS'crucial'
p283
I2
sS'content'
p284
I2
sS'adapt'
p285
I1
sS'got'
p286
I2
sS'gov'
p287
I2
sS'venezuela'
p288
I1
sS'gop'
p289
I1
sS'smart'
p290
I1
sS'love'
p291
I3
sS'avelica'
p292
I1
sS'situat'
p293
I2
sS'free'
p294
I5
sS'russia\xef\xbf\xbd\xef\xbf\xbd\xef\xbf\xbd'
p295
I2
sS'jaziri'
p296
I1
sS'rspca'
p297
I1
sS'beatti'
p298
I2
sS'mvp'
p299
I1
sS'reneg'
p300
I2
sS'perform'
p301
I2
sS'parliament\xce\xbeon'
p302
I1
sS'district'
p303
I1
sS'puzzl'
p304
I1
sS'cosmic'
p305
I1
sS'fordyc'
p306
I1
sS'filter'
p307
I1
sS'isi'
p308
I2
sS'fought'
p309
I1
sS'confus'
p310
I1
sS'carryn'
p311
I2
sS'rand'
p312
I1
sS'enix'
p313
I1
sS'wasp'
p314
I1
sS'independ'
p315
I4
sS'rank'
p316
I3
sS'capac'
p317
I1
sS'unlik'
p318
I2
sS'alreadi'
p319
I2
sS'agre'
p320
I4
sS'fantast'
p321
I1
sS'bullish\xef\xbf\xbd\xef\xbf\xbd\xef\xbf\xbd'
p322
I1
sS'2050'
p323
I1
sS'toy'
p324
I1
sS'garri'
p325
I1
sS'top'
p326
I15
sS'bitcoin'
p327
I1
sS'stack'
p328
I1
sS'enthral'
p329
I1
sS'master'
p330
I2
sS'tom'
p331
I5
sS'hollywood'
p332
I3
sS'john'
p333
I10
sS'listen'
p334
I2
sS'murder'
p335
I3
sS'tool'
p336
I1
sS'took'
p337
I4
sS'conserv'
p338
I2
sS'crawl'
p339
I1
sS'technic'
p340
I1
sS'america\xef\xbf\xbd\xdc\xa2'
p341
I1
sS'arsen'
p342
I1
sS'silli'
p343
I2
sS'target'
p344
I5
sS'ew'
p345
I2
sS'provid'
p346
I1
sS'board'
p347
I1
sS'raybabi'
p348
I1
sS'project'
p349
I4
sS'matter'
p350
I3
sS'silicon'
p351
I1
sS'anxieti'
p352
I1
sS'flame'
p353
I1
sS'minut'
p354
I8
sS'contenti'
p355
I2
sS'close'
p356
I6
sS'runner'
p357
I1
sS'boston'
p358
I1
sS'ram'
p359
I1
sS'salvag'
p360
I1
sS'briton'
p361
I2
sS'raw'
p362
I1
sS'seen'
p363
I3
sS'seem'
p364
I3
sS'1970'
p365
I1
sS'seek'
p366
I5
sS'ray'
p367
I1
sS'luxuri'
p368
I1
sS'brandon'
p369
I1
sS'chest'
p370
I1
sS'blue'
p371
I1
sS'germani'
p372
I4
sS'plenti'
p373
I2
sS'isn\xef\xbf\xbd\xef\xbf\xbd\xef\xbf\xbdt'
p374
I1
sS'pitbul'
p375
I1
sS'hammond'
p376
I1
sS'kean'
p377
I1
sS'shale'
p378
I1
sS'marin'
p379
I1
sS'regular'
p380
I1
sS'addict'
p381
I1
sS'letter'
p382
I3
sS'thriller'
p383
I1
sS'tradit'
p384
I2
sS'romulo'
p385
I1
sS'camp'
p386
I1
sS'metal'
p387
I1
sS'twickenham'
p388
I1
sS'hospit'
p389
I4
sS'swamp'
p390
I1
sS'declar'
p391
I1
sS'tech'
p392
I4
sS'carolin'
p393
I2
sS'opec\xef\xbf\xbd\xef\xbf\xbd\xef\xbf\xbd'
p394
I1
sS'dow'
p395
I1
sS'came'
p396
I6
sS'bomb'
p397
I1
sS'probe'
p398
I2
sS'prix'
p399
I2
sS'qaeda'
p400
I1
sS'radio'
p401
I7
sS'shelv'
p402
I1
sS'radic'
p403
I3
sS'capitol'
p404
I2
sS'involv'
p405
I7
sS'gutsi'
p406
I1
sS'submit'
p407
I1
sS'dawn'
p408
I2
sS'pledg'
p409
I1
sS'explain'
p410
I2
sS'restaur'
p411
I1
sS'sciutto'
p412
I1
sS'bush'
p413
I1
sS'busi'
p414
I6
sS'rich'
p415
I2
sS'edict'
p416
I1
sS'11'
p417
I1
sS'mcshay'
p418
I1
sS'dh'
p419
I1
sS'de'
p420
I3
sS'watch'
p421
I7
sS'dc'
p422
I2
sS'coast'
p423
I1
sS'watson'
p424
I2
sS'report'
p425
I20
sS'johanna'
p426
I1
sS'youtub'
p427
I1
sS'earn'
p428
I3
sS'politician'
p429
I1
sS'secretari'
p430
I16
sS'19'
p431
I1
sS'bad'
p432
I4
sS'ban'
p433
I3
sS'singhal'
p434
I2
sS'lavrov'
p435
I2
sS'respond'
p436
I2
sS'vampir'
p437
I1
sS'victim'
p438
I2
sS'robbi'
p439
I1
sS'beg'
p440
I1
sS'result'
p441
I3
sS'respons'
p442
I4
sS'fail'
p443
I6
sS'hammer'
p444
I1
sS'best'
p445
I14
sS'subject'
p446
I1
sS'don\xef\xbf\xbd\xef\xbf\xbd\xef\xbf\xbdt'
p447
I2
sS'said'
p448
I34
sS'mahershala'
p449
I1
sS'away'
p450
I5
sS'hamilton'
p451
I1
sS'figur'
p452
I2
sS'score'
p453
I6
sS'approach'
p454
I3
sS'huong'
p455
I1
sS'obama\xef\xbf\xbd\xef\xbf\xbd\xef\xbf\xbd'
p456
I1
sS'accord'
p457
I6
sS'never'
p458
I1
sS'extend'
p459
I2
sS'insurers\xce\xbeat'
p460
I1
sS'boss'
p461
I4
sS'extens'
p462
I2
sS'unfold'
p463
I1
sS'news'
p464
I12
sS'debt'
p465
I2
sS'protect'
p466
I6
sS'accident'
p467
I1
sS'veer'
p468
I1
sS'ill'
p469
I1
sS'ncaa'
p470
I3
sS'gamer'
p471
I1
sS'woodhal'
p472
I2
sS'uncertainti'
p473
I1
sS'com'
p474
I1
sS'prospect'
p475
I1
sS'assur'
p476
I2
sS'tone'
p477
I1
sS'toni'
p478
I3
sS'54bn'
p479
I1
sS'path'
p480
I1
sS'trust'
p481
I4
sS'raith'
p482
I1
sS'matti'
p483
I1
sS'speak'
p484
I1
sS'recus'
p485
I5
sS'union'
p486
I3
sS'buffett'
p487
I2
sS'three'
p488
I4
sS'specul'
p489
I2
sS'revenu'
p490
I1
sS'much'
p491
I7
sS'interest'
p492
I4
sS'subscrib'
p493
I1
sS'tallest'
p494
I1
sS'quickli'
p495
I4
sS'life'
p496
I5
sS'partnership'
p497
I2
sS'regul'
p498
I2
sS'deeper'
p499
I1
sS'eastern'
p500
I1
sS'suppress'
p501
I1
sS'dismiss'
p502
I2
sS'worker'
p503
I4
sS'lift'
p504
I1
sS'chile'
p505
I1
sS'child'
p506
I1
sS'catch'
p507
I2
sS'deepen'
p508
I1
sS'spin'
p509
I2
sS'glider'
p510
I1
sS'davi'
p511
I2
sS'lionel'
p512
I1
sS'dash'
p513
I1
sS'east'
p514
I2
sS'tank'
p515
I1
sS'rori'
p516
I1
sS'servic'
p517
I6
sS'properti'
p518
I1
sS'air'
p519
I4
sS'aim'
p520
I1
sS'near'
p521
I4
sS'aid'
p522
I4
sS'f\xef\xbf\xbd\xef\xbf\xbdin'
p523
I1
sS'k'
I2
sS'kentucki'
p524
I2
sS'i\xef\xbf\xbd\xef\xbf\xbd\xef\xbf\xbdv'
p525
I1
sS'eventually\xce\xberec\xef\xbf\xbd\xef\xbf\xbd'
p526
I1
sS'seven'
p527
I4
sS'mexico'
p528
I3
sS'bolivian'
p529
I1
sS'ip'
p530
I1
sS'congression'
p531
I3
sS'sting'
p532
I1
sS'player'
p533
I5
sS'fled'
p534
I1
sS'in'
p535
I2
sS'sever'
p536
I5
sS'grown'
p537
I1
sS'patent'
p538
I1
sS'make'
p539
I14
sS'amount'
p540
I2
sS'complex'
p541
I1
sS'split'
p542
I1
sS'bid'
p543
I4
sS'complet'
p544
I1
sS'wheel'
p545
I1
sS'elli'
p546
I3
sS'raid'
p547
I4
sS'evid'
p548
I3
sS'kushner'
p549
I1
sS'welsh'
p550
I1
sS'wrongdo'
p551
I1
sS'rain'
p552
I1
sS'hand'
p553
I6
sS'rais'
p554
I4
sS'kim'
p555
I4
sS'kid'
p556
I3
sS'vermont'
p557
I1
sS'kept'
p558
I4
sS'1979'
p559
I1
sS'1974'
p560
I1
sS'1972'
p561
I1
sS'\xef\xbf\xbd\xef\xbf\xbd\xef\xbf\xbdmore'
p562
I1
sS'contact'
p563
I8
sS'shortli'
p564
I1
sS'greatest'
p565
I1
sS'thi'
p566
I1
sS'mother'
p567
I1
sS'programm'
p568
I2
sS'everyth'
p569
I1
sS'paradigm'
p570
I1
sS'legisl'
p571
I1
sS'left'
p572
I7
sS'facto'
p573
I1
sS'superbug'
p574
I1
sS'market\xef\xbf\xbd\xef\xbf\xbd\xef\xbf\xbd'
p575
I1
sS'athletic'
p576
I1
sS'photo'
p577
I3
sS'neil'
p578
I1
sS'birmingham'
p579
I3
sS'at\xce\xbeth'
p580
I1
sS'human'
p581
I1
sS'yet'
p582
I3
sS'jose'
p583
I3
sS'alun'
p584
I1
sS'propuls'
p585
I1
sS'easi'
p586
I3
sS'interfer'
p587
I4
sS'brisban'
p588
I2
sS'hay'
p589
I2
sS'spread'
p590
I1
sS'athlet'
p591
I3
sS'prison'
p592
I2
sS'company\xef\xbf\xbd\xef\xbf\xbd\xef\xbf\xbd'
p593
I1
sS'save'
p594
I1
sS'hat'
p595
I1
sS'gave'
p596
I2
sS'applic'
p597
I2
sS'coron'
p598
I1
sS'measur'
p599
I4
sS'preserv'
p600
I1
sS'outright'
p601
I1
sS'tourney'
p602
I2
sS'leagu'
p603
I8
sS'rahman'
p604
I2
sS'everton'
p605
I1
sS'shadow'
p606
I1
sS'retreat'
p607
I1
sS'trump\xef\xbf\xbd\xef\xbf\xbd\xef\xbf\xbd'
p608
I10
sS'shoulder'
p609
I1
sS'people\xef\xbf\xbd\xef\xbf\xbd\xef\xbf\xbd'
p610
I1
sS'exxon'
p611
I1
sS'specif'
p612
I1
sS'54'
p613
I2
sS'50'
p614
I2
sS'stroke'
p615
I1
sS'confid'
p616
I1
sS'night'
p617
I4
sS'reassign'
p618
I1
sS'webb'
p619
I1
sS'attorney'
p620
I15
sS'right'
p621
I7
sS'old'
p622
I7
sS'famili'
p623
I7
sS'deal'
p624
I9
sS'pacquiao'
p625
I1
sS'vigor'
p626
I1
sS'disord'
p627
I1
sS'crown'
p628
I2
sS'catalunya'
p629
I1
sS'percentag'
p630
I1
sS'born'
p631
I2
sS'donald'
p632
I60
sS'bori'
p633
I1
sS'importantli'
p634
I1
sS'bore'
p635
I1
sS'sprawl'
p636
I1
sS'\xef\xbf\xbd\xef\xbf\xbd\xef\xbf\xbdsamsung'
p637
I1
sS'cooper'
p638
I2
sS'bottom'
p639
I1
sS'ice'
p640
I1
sS'foe'
p641
I1
sS'fog'
p642
I1
sS'heathrow'
p643
I1
sS'overcom'
p644
I1
sS'cnn'
p645
I18
sS'condit'
p646
I1
sS'holiday'
p647
I1
sS'plu'
p648
I3
sS'tour'
p649
I1
sS'bobbi'
p650
I1
sS'confer'
p651
I7
sS'englishmen'
p652
I1
sS'corp'
p653
I7
sS'promot'
p654
I1
sS'pincher'
p655
I1
sS'peer'
p656
I3
sS'post'
p657
I1
sS'super'
p658
I1
sS'spoke'
p659
I1
sS'chapter'
p660
I1
sS'literatur'
p661
I1
sS'surround'
p662
I2
sS'destabilis'
p663
I1
sS'dinner'
p664
I3
sS'banker'
p665
I1
sS'horizon'
p666
I2
sS'commit'
p667
I3
sS'marshal'
p668
I1
sS'bannon'
p669
I1
sS'nixon'
p670
I1
sS'duke'
p671
I1
sS'dilemma'
p672
I1
sS'tackl'
p673
I1
sS'profession'
p674
I3
sS'bound'
p675
I1
sS'cauldron'
p676
I2
sS'son'
p677
I5
sS'down'
p678
I1
sS'bizarr'
p679
I1
sS'wrap'
p680
I1
sS'sox'
p681
I1
sS'storag'
p682
I2
sS'mass'
p683
I1
sS'agency\xef\xbf\xbd\xef\xbf\xbd\xef\xbf\xbd'
p684
I1
sS'crowd'
p685
I6
sS'frustrat'
p686
I1
sS'support'
p687
I9
sS'transform'
p688
I1
sS'happi'
p689
I2
sS'avail'
p690
I1
sS'anderson'
p691
I1
sS'joseph'
p692
I1
sS'way'
p693
I10
sS'acknowledg'
p694
I1
sS'jane'
p695
I1
sS'music'
p696
I3
sS'war'
p697
I1
sS'retali'
p698
I1
sS'analysi'
p699
I2
sS'head'
p700
I5
sS'\xce\xbeafter'
p701
I1
sS'offer'
p702
I10
sS'forc'
p703
I4
sS'bigger'
p704
I1
sS'dealmak'
p705
I1
sS'peninsula'
p706
I1
sS'heat'
p707
I3
sS'hear'
p708
I5
sS'solar'
p709
I1
sS'archi'
p710
I1
sS'true'
p711
I1
sS'extremist'
p712
I2
sS'revel'
p713
I1
sS'intern'
p714
I5
sS'crop'
p715
I1
sS'absenc'
p716
I1
sS'retir'
p717
I2
sS'featur'
p718
I4
sS'alongsid'
p719
I1
sS'classic'
p720
I1
sS'tesla'
p721
I4
sS'request'
p722
I1
sS'tournament'
p723
I2
sS'sale'
p724
I1
sS'exist'
p725
I1
sS'elon'
p726
I6
sS'perez'
p727
I4
sS'ship'
p728
I1
sS'trip'
p729
I3
sS'assembl'
p730
I1
sS'ni'
p731
I1
sS'encrypt'
p732
I2
sS'floor'
p733
I1
sS'i\xef\xbf\xbd\xef\xbf\xbd\xef\xbf\xbdll'
p734
I1
sS'stake'
p735
I1
sS'tip'
p736
I1
sS'actor'
p737
I7
sS'leed'
p738
I3
sS'role'
p739
I3
sS'jone'
p740
I5
sS'test'
p741
I8
sS'tie'
p742
I3
sS'appetit'
p743
I1
sS'depos'
p744
I1
sS'roll'
p745
I1
sS'realiti'
p746
I1
sS'cleric'
p747
I1
sS'devot'
p748
I1
sS'fell'
p749
I3
sS'award'
p750
I12
sS'consid'
p751
I1
sS'stoke'
p752
I2
sS'weekend'
p753
I4
sS'tottenham'
p754
I1
sS'billion'
p755
I5
sS'longer'
p756
I1
sS'bracketolog'
p757
I1
sS'holm'
p758
I1
sS'turbul'
p759
I2
sS'world\xef\xbf\xbd\xef\xbf\xbd\xef\xbf\xbd'
p760
I5
sS'ignor'
p761
I2
sS'time'
p762
I20
sS'push'
p763
I4
sS'serious'
p764
I1
sS'coach'
p765
I2
sS'skip'
p766
I2
sS'celebr'
p767
I2
sS'rod'
p768
I1
sS'focus'
p769
I3
sS'laura'
p770
I1
sS'roy'
p771
I2
sS'signific'
p772
I1
sS'mile'
p773
I1
sS'diplomaci'
p774
I1
sS'shot'
p775
I1
sS'chair'
p776
I3
sS'row'
p777
I1
sS'varnish'
p778
I1
sS'middl'
p779
I2
sS'depend'
p780
I1
sS'recruit'
p781
I1
sS'father'
p782
I2
sS'1945'
p783
I1
sS'environment'
p784
I3
sS'iraqi'
p785
I1
sS'certainli'
p786
I1
sS'decis'
p787
I6
sS'terror'
p788
I3
sS'brown'
p789
I1
sS'sourc'
p790
I2
sS'string'
p791
I2
sS'minist'
p792
I10
sS'ginsburg'
p793
I1
sS'catharsi'
p794
I1
sS'spate'
p795
I1
sS'embark'
p796
I1
sS'lynch'
p797
I1
sS'convict'
p798
I1
sS'word'
p799
I1
sS'exact'
p800
I1
sS'salvador'
p801
I1
sS'administr'
p802
I18
sS'level'
p803
I5
sS'tear'
p804
I1
sS'die'
p805
I13
sS'dig'
p806
I1
sS'brother'
p807
I5
sS'team'
p808
I14
sS'round'
p809
I5
sS'prevent'
p810
I1
sS'ezra'
p811
I1
sS'heinz'
p812
I1
sS'dalla'
p813
I1
sS'roadshow'
p814
I1
sS'compens'
p815
I1
sS'cyber'
p816
I1
sS'sign'
p817
I2
sS'heavyweight'
p818
I1
sS'cost'
p819
I3
sS'stamford'
p820
I1
sS'draymond'
p821
I1
sS'patient'
p822
I1
sS'port'
p823
I1
sS'incarcer'
p824
I1
sS'appear'
p825
I5
sS'feat'
p826
I1
sS'current'
p827
I2
sS'suspect'
p828
I5
sS'shingl'
p829
I1
sS'boost'
p830
I4
sS'era'
p831
I1
sS'stefan'
p832
I1
sS'gener'
p833
I22
sS'muslim'
p834
I2
sS'durant'
p835
I1
sS'french'
p836
I2
sS'water'
p837
I2
sS'entertain'
p838
I1
sS'juri'
p839
I1
sS'zeliz'
p840
I1
sS'address'
p841
I7
sS'benson'
p842
I1
sS'box'
p843
I2
sS'egypt\xef\xbf\xbd\xef\xbf\xbd\xef\xbf\xbd'
p844
I1
sS'boast'
p845
I1
sS'invit'
p846
I1
sS'shift'
p847
I2
sS'investors\xce\xbein'
p848
I1
sS'dublin'
p849
I1
sS'sift'
p850
I1
sS'trial'
p851
I1
sS'paxton'
p852
I4
sS'extrem'
p853
I2
sS'leicest'
p854
I13
sS'boe'
p855
I1
sS'briberi'
p856
I1
sS'elect'
p857
I15
sS'extra'
p858
I2
sS'ipo'
p859
I1
sS'china\xef\xbf\xbd\xef\xbf\xbd\xef\xbf\xbd'
p860
I1
sS'therano'
p861
I1
sS'exasper'
p862
I1
sS'watford'
p863
I1
sS'fake'
p864
I2
sS'gonzalez'
p865
I1
sS'mobil'
p866
I6
sS'market'
p867
I7
sS'wholesal'
p868
I1
sS'andi'
p869
I5
sS'prove'
p870
I1
sS'tillerson'
p871
I1
sS'univers'
p872
I3
sS'visit'
p873
I4
sS'then\xce\xbedan'
p874
I1
sS'live'
p875
I18
sS'australian'
p876
I1
sS'today'
p877
I8
sS'ayr'
p878
I1
sS'indystar'
p879
I1
sS'capit'
p880
I2
sS'city\xce\xbeexecut'
p881
I1
sS'faith'
p882
I1
sS'club'
p883
I3
sS'peopl'
p884
I17
sS'casey'
p885
I1
sS'examin'
p886
I1
sS'ventur'
p887
I1
sS'effort'
p888
I3
sS'peacemak'
p889
I1
sS'demolish'
p890
I1
sS'car'
p891
I4
sS'prepar'
p892
I6
sS'blackburn'
p893
I1
sS'battl'
p894
I5
sS'focu'
p895
I4
sS'judd'
p896
I1
sS'fla'
p897
I1
sS'social'
p898
I5
sS'streak'
p899
I1
sS'claim'
p900
I4
sS'underestim'
p901
I1
sS'gaston'
p902
I2
sS'trump'
p903
I87
sS'stream'
p904
I1
sS'predict'
p905
I1
sS'thursday\xce\xbeask'
p906
I1
sS'steal'
p907
I1
sS'agent'
p908
I4
sS'spi'
p909
I1
sS'critic'
p910
I4
sS'abort'
p911
I1
sS'council'
p912
I3
sS'agenc'
p913
I4
sS'articl'
p914
I1
sS'hydrogen'
p915
I1
sS'strikingli'
p916
I1
sS's8'
p917
I2
sS'multipl'
p918
I2
sS'winter'
p919
I1
sS's3'
p920
I2
sS'drivetrib'
p921
I1
sS's7'
p922
I1
sS'economi'
p923
I1
sS'write'
p924
I5
sS'alway'
p925
I3
sS'sunday'
p926
I6
sS'anyon'
p927
I3
sS'fourth'
p928
I1
sS'map'
p929
I1
sS'product'
p930
I1
sS'paramount'
p931
I1
sS'intrud'
p932
I1
sS'technocrat'
p933
I1
sS'may'
p934
I18
sS'broad'
p935
I1
sS'aol'
p936
I1
sS'southern'
p937
I4
sS'lefou'
p938
I1
sS'membership'
p939
I1
sS'date'
p940
I1
sS'remak'
p941
I1
sS'it\xef\xbf\xbd\xef\xbf\xbd\xef\xbf\xbd'
p942
I7
sS'data'
p943
I1
sS'man'
p944
I15
sS'california\xef\xbf\xbd\xef\xbf\xbd\xef\xbf\xbd'
p945
I1
sS'sy'
p946
I1
sS'liquid'
p947
I1
sS'untru'
p948
I1
sS'devo'
p949
I1
sS'produc'
p950
I5
sS'inform'
p951
I1
sS'switch'
p952
I4
sS'truck'
p953
I1
sS'african'
p954
I2
sS'talk'
p955
I7
sS'approv'
p956
I1
sS'brain'
p957
I1
sS'kimmel'
p958
I1
sS'shake'
p959
I1
sS'elain'
p960
I1
sS'equip'
p961
I1
sS'cold'
p962
I1
sS'still'
p963
I5
sS'dynam'
p964
I1
sS'jess'
p965
I2
sS'group'
p966
I8
sS'monitor'
p967
I2
sS'hors'
p968
I1
sS'polici'
p969
I9
sS'jim'
p970
I3
sS'tori'
p971
I2
sS'be\xce\xbeth'
p972
I1
sS'window'
p973
I2
sS'main'
p974
I2
sS'alagui'
p975
I1
sS'non'
p976
I4
sS'recal'
p977
I2
sS'halt'
p978
I1
sS'civilian'
p979
I1
sS'financi'
p980
I2
sS'initi'
p981
I4
sS'nation'
p982
I25
sS'bank\xef\xbf\xbd\xef\xbf\xbd\xef\xbf\xbd'
p983
I1
sS'answer'
p984
I1
sS'hale'
p985
I1
sS'half'
p986
I4
sS'bath'
p987
I1
sS'discuss'
p988
I3
sS'rescind'
p989
I1
sS'critiqu'
p990
I1
sS'term'
p991
I3
sS'name'
p992
I4
sS'clutch'
p993
I1
sS'drop'
p994
I4
sS'separ'
p995
I1
sS'magazin'
p996
I1
sS'savag'
p997
I1
sS'rock'
p998
I1
sS'overtur'
p999
I1
sS'januari'
p1000
I2
sS'quarter'
p1001
I4
sS'el'
p1002
I2
sS'replac'
p1003
I7
sS'kane'
p1004
I1
sS'worldwid'
p1005
I1
sS'continu'
p1006
I4
sS'retailer\xef\xbf\xbd\xef\xbf\xbd\xef\xbf\xbd'
p1007
I1
sS'ex'
p1008
I3
sS'begun'
p1009
I2
sS'year'
p1010
I28
sS'eu'
p1011
I2
sS'et'
p1012
I1
sS'counteract'
p1013
I2
sS'seoul'
p1014
I1
sS'hacker'
p1015
I1
sS'announc'
p1016
I12
sS'space'
p1017
I5
sS'profit'
p1018
I2
sS'lebron'
p1019
I1
sS'oklahoma'
p1020
I1
sS'ruck'
p1021
I1
sS'boy\xef\xbf\xbd\xef\xbf\xbd\xef\xbf\xbd'
p1022
I1
sS'factori'
p1023
I1
sS'diseas'
p1024
I1
sS'monster'
p1025
I1
sS'glimps'
p1026
I4
sS'domest'
p1027
I1
sS'million'
p1028
I9
sS'envelop'
p1029
I1
sS'headlin'
p1030
I2
sS'california'
p1031
I1
sS'rebel'
p1032
I1
sS'triangl'
p1033
I1
sS'citizens\xce\xbewithin'
p1034
I1
sS'keith'
p1035
I3
sS'card'
p1036
I1
sS'care'
p1037
I11
sS'recod'
p1038
I1
sS'departur'
p1039
I1
sS'clennel'
p1040
I1
sS'refus'
p1041
I2
sS'honest'
p1042
I2
sS'recov'
p1043
I1
sS'thing'
p1044
I5
sS'livingston'
p1045
I1
sS'place'
p1046
I1
sS'vision'
p1047
I1
sS'turf'
p1048
I1
sS'loretta'
p1049
I1
sS'view'
p1050
I1
sS'think'
p1051
I6
sS'first'
p1052
I33
sS'blind'
p1053
I1
sS'sanchez'
p1054
I1
sS'moscow\xef\xbf\xbd\xef\xbf\xbd\xef\xbf\xbd'
p1055
I1
sS'suspend'
p1056
I1
sS'oppon'
p1057
I1
sS'directli'
p1058
I1
sS'xm'
p1059
I1
sS'carri'
p1060
I1
sS'potter'
p1061
I1
sS'one'
p1062
I32
sS'acquisit'
p1063
I1
sS'insist'
p1064
I3
sS'arriv'
p1065
I1
sS'fast'
p1066
I2
sS'vote'
p1067
I5
sS'unelect'
p1068
I1
sS'fight'
p1069
I4
sS'open'
p1070
I8
sS'tomorrow'
p1071
I3
sS'given'
p1072
I6
sS'ian'
p1073
I1
sS'convent'
p1074
I1
sS'lanka'
p1075
I1
sS'bite'
p1076
I1
sS'fierc'
p1077
I1
sS'citi'
p1078
I11
sS'2'
I3
sS'daunt'
p1079
I2
sS'white'
p1080
I19
sS'melbourn'
p1081
I3
sS'garner'
p1082
I1
sS'hillari'
p1083
I4
sS'hug'
p1084
I1
sS'season'
p1085
I8
sS'moscow'
p1086
I1
sS'copi'
p1087
I2
sS'broadcast'
p1088
I1
sS'mostli'
p1089
I1
sS'domin'
p1090
I3
sS'serv'
p1091
I4
sS'10'
p1092
I7
sS'12'
p1093
I1
sS'15'
p1094
I1
sS'14'
p1095
I2
sS'17'
p1096
I4
sS'untelevis'
p1097
I1
sS'rival'
p1098
I2
sS'conglomer'
p1099
I1
sS'spokeswoman'
p1100
I1
sS'r'
I2
sS'cowel'
p1101
I1
sS'posit'
p1102
I2
sS'harewood'
p1103
I1
sS'russia'
p1104
I7
sS'seri'
p1105
I6
sS'pre'
p1106
I2
sS'conspiraci'
p1107
I2
sS'angel'
p1108
I1
sS'the\xce\xbetwo'
p1109
I1
sS'craig'
p1110
I1
sS'premier'
p1111
I5
sS'argument'
p1112
I1
sS'alleg'
p1113
I6
sS'eoin'
p1114
I1
sS'say'
p1115
I48
sS'slam'
p1116
I3
sS'deliv'
p1117
I3
sS'nazi'
p1118
I1
sS'worst'
p1119
I1
sS'kevin'
p1120
I2
sS'mislead'
p1121
I2
sS'engin'
p1122
I3
sS'squar'
p1123
I1
sS'note'
p1124
I4
sS'berni'
p1125
I2
sS'satellit'
p1126
I2
sS'squad'
p1127
I1
sS'take'
p1128
I13
sS'advis'
p1129
I12
sS'noth'
p1130
I1
sS'channel'
p1131
I3
sS'200'
p1132
I2
sS'begin'
p1133
I4
sS'sure'
p1134
I2
sS'pain'
p1135
I1
sS'track'
p1136
I2
sS'price'
p1137
I5
sS'knew'
p1138
I1
sS'eldest'
p1139
I1
sS'clearer'
p1140
I1
sS'paid'
p1141
I4
sS'plagu'
p1142
I1
sS'assault'
p1143
I1
sS'abus'
p1144
I3
sS'pair'
p1145
I1
sS'america'
p1146
I3
sS'icon'
p1147
I1
sS'heintz'
p1148
I1
sS'ensnar'
p1149
I1
sS'rescu'
p1150
I1
sS'later'
p1151
I3
sS'drive'
p1152
I1
sS'ferrari'
p1153
I2
sS'senior'
p1154
I6
sS'film\xef\xbf\xbd\xef\xbf\xbd\xef\xbf\xbd'
p1155
I2
sS'union\xef\xbf\xbd\xef\xbf\xbd\xef\xbf\xbd'
p1156
I2
sS'show'
p1157
I9
sS'talbot'
p1158
I1
sS'kalanick'
p1159
I3
sS'hack'
p1160
I2
sS'spacex'
p1161
I3
sS'\xef\xbf\xbd\xef\xbf\xbd\xef\xbf\xbdtotal\xef\xbf\xbd\xef\xbf\xbd\xef\xbf\xbd'
p1162
I1
sS'fifth'
p1163
I2
sS'ground'
p1164
I3
sS'enthusiast'
p1165
I1
sS'murphi'
p1166
I1
sS'treasuri'
p1167
I2
sS'3'
I4
sS'wood'
p1168
I2
sS'black'
p1169
I2
sS'obstacl'
p1170
I1
sS'neath'
p1171
I1
sS'carolina'
p1172
I2
sS'nearli'
p1173
I1
sS'get'
p1174
I13
sS'mission'
p1175
I1
sS'grave'
p1176
I2
sS'share\xce\xbeyesterday'
p1177
I1
sS'outlet'
p1178
I2
sS'plaintiff'
p1179
I1
sS'clearest'
p1180
I1
sS'requir'
p1181
I2
sS'truli'
p1182
I1
sS'prime'
p1183
I6
sS'reveal'
p1184
I3
sS'artist'
p1185
I1
sS'hostil'
p1186
I1
sS'dramat'
p1187
I2
sS'midfield'
p1188
I1
sS'priest'
p1189
I1
sS'roger'
p1190
I1
sS'husband'
p1191
I1
sS'summari'
p1192
I1
sS'espn'
p1193
I3
sS'burst'
p1194
I1
sS'unfil'
p1195
I1
sS'bargain'
p1196
I1
sS'asleep'
p1197
I1
sS'sean'
p1198
I3
sS'seal'
p1199
I3
sS'reserv'
p1200
I2
sS'stanley'
p1201
I1
sS'sport'
p1202
I5
sS'siriu'
p1203
I1
sS'concern'
p1204
I4
sS'unmatch'
p1205
I1
sS'televis'
p1206
I1
sS'tillerson\xef\xbf\xbd\xef\xbf\xbd\xef\xbf\xbd'
p1207
I1
sS'innov'
p1208
I2
sS'review'
p1209
I4
sS'innoc'
p1210
I1
sS'un'
p1211
I1
sS'staffer'
p1212
I1
sS'across'
p1213
I2
sS'yellen'
p1214
I1
sS'parent'
p1215
I3
sS'\xef\xbf\xbd\xef\xbf\xbd\xef\xbf\xbdstar'
p1216
I1
sS'screen'
p1217
I3
sS'jr'
p1218
I1
sS'blame'
p1219
I2
sS'cycl'
p1220
I2
sS'spark'
p1221
I1
sS'comb'
p1222
I1
sS'come'
p1223
I7
sS'zakaria'
p1224
I1
sS'oust'
p1225
I2
sS'pannel'
p1226
I1
sS'region'
p1227
I1
sS'monk'
p1228
I1
sS'emit'
p1229
I1
sS'audienc'
p1230
I1
sS'rugbi'
p1231
I1
sS'newfound'
p1232
I1
sS'mani'
p1233
I9
sS'emiss'
p1234
I1
sS'among'
p1235
I2
sS'acceler'
p1236
I1
sS'undocu'
p1237
I2
sS'color'
p1238
I2
sS'inspir'
p1239
I2
sS'period'
p1240
I2
sS'custodi'
p1241
I1
sS'mccain'
p1242
I3
sS'duti'
p1243
I1
sS'61'
p1244
I3
sS'twin'
p1245
I1
sS'anti'
p1246
I3
sS'bader'
p1247
I1
sS'\xef\xbf\xbd\xef\xbf\xbd\xef\xbf\xbdpursu'
p1248
I1
sS'poll'
p1249
I2
sS'gauntlet'
p1250
I1
sS'mare'
p1251
I1
sS'ultim'
p1252
I1
sS'coupl'
p1253
I2
sS'stretch'
p1254
I2
sS'west'
p1255
I3
sS'134th\xce\xbegraduat'
p1256
I1
sS'mark'
p1257
I2
sS'breath'
p1258
I5
sS'teddi'
p1259
I1
sS'barri'
p1260
I1
sS'cas9'
p1261
I1
sS'500'
p1262
I1
sS'followup'
p1263
I1
sS'benoit'
p1264
I1
sS'special\xef\xbf\xbd\xef\xbf\xbd\xef\xbf\xbd'
p1265
I2
sS'andrew'
p1266
I7
sS'tiger'
p1267
I1
sS'catastroph'
p1268
I1
sS'hashtag'
p1269
I1
sS'impati'
p1270
I1
sS'spirit'
p1271
I1
sS'hodgson'
p1272
I1
sS'case'
p1273
I6
sS'nixon\xef\xbf\xbd\xef\xbf\xbd\xef\xbf\xbd'
p1274
I1
sS'might'
p1275
I4
sS'mount'
p1276
I1
sS'arnold'
p1277
I1
sS'there\xef\xbf\xbd\xef\xbf\xbd\xef\xbf\xbd'
p1278
I3
sS'trick'
p1279
I1
sS'cast'
p1280
I4
sS'invok'
p1281
I1
sS'imperil'
p1282
I1
sS'advantag'
p1283
I1
sS'soil'
p1284
I1
sS'ellison'
p1285
I2
sS'destin'
p1286
I1
sS'sudden'
p1287
I1
sS'lady\xef\xbf\xbd\xef\xbf\xbd\xef\xbf\xbd'
p1288
I1
sS'tourist'
p1289
I2
sS'helmet'
p1290
I1
sS'par'
p1291
I1
sS'develop'
p1292
I3
sS'doctor'
p1293
I1
sS'pay'
p1294
I6
sS'medic'
p1295
I1
sS'econom'
p1296
I4
sS'check'
p1297
I2
sS'exet'
p1298
I1
sS'poetic'
p1299
I1
sS'speech'
p1300
I5
sS'document'
p1301
I2
sS'week'
p1302
I25
sS'statur'
p1303
I1
sS'oil'
p1304
I2
sS'closest'
p1305
I1
sS'assist'
p1306
I1
sS'driver'
p1307
I3
sS'mesh'
p1308
I1
sS'director'
p1309
I3
sS'kubo'
p1310
I1
sS'adkin'
p1311
I1
sS'disguis'
p1312
I1
sS'widespread'
p1313
I1
sS'improv'
p1314
I2
sS'railway'
p1315
I1
sS'appropri'
p1316
I1
sS'theater'
p1317
I1
sS'reliev'
p1318
I1
sS'vacant'
p1319
I1
sS'without'
p1320
I9
sS'model'
p1321
I4
sS'workplac'
p1322
I1
sS'roughli'
p1323
I1
sS'taxi'
p1324
I1
sS'217'
p1325
I1
sS'\xef\xbf\xbd\xef\xbf\xbd\xef\xbf\xbdsting\xef\xbf\xbd\xef\xbf\xbd\xef\xbf\xbd'
p1326
I1
sS'abund'
p1327
I1
sS'execut'
p1328
I6
sS'vent'
p1329
I1
sS'money'
p1330
I5
sS'emerald'
p1331
I1
sS'unionist'
p1332
I1
sS'gavin'
p1333
I1
sS'oxford'
p1334
I1
sS'violent'
p1335
I1
sS'kill'
p1336
I6
sS'touch'
p1337
I1
sS'exacerb'
p1338
I1
sS'speed'
p1339
I3
sS'halfway'
p1340
I1
sS'mccorvey'
p1341
I2
sS'rover'
p1342
I2
sS'death'
p1343
I6
sS'asthma'
p1344
I1
sS'parad'
p1345
I1
sS'littl'
p1346
I2
sS'wall'
p1347
I2
sS'lunardi'
p1348
I1
sS'bloc'
p1349
I1
sS'treatment'
p1350
I3
sS'jong'
p1351
I4
sS'belgrad'
p1352
I2
sS'ross'
p1353
I1
sS'real'
p1354
I1
sS'jake'
p1355
I2
sS'around'
p1356
I6
sS'read'
p1357
I1
sS'psa'
p1358
I1
sS'unveil'
p1359
I1
sS'dark'
p1360
I2
sS'regim'
p1361
I1
sS'grid'
p1362
I1
sS'baltimor'
p1363
I1
sS'mom'
p1364
I1
sS'darl'
p1365
I1
sS'world'
p1366
I24
sS'walk'
p1367
I3
sS'katherin'
p1368
I1
sS'mourinho'
p1369
I3
sS'vauxhal'
p1370
I1
sS'clad'
p1371
I1
sS'slain'
p1372
I1
sS'server'
p1373
I1
sS'shutter'
p1374
I1
sS'benefit'
p1375
I4
sS'updat'
p1376
I1
sS'wbo'
p1377
I1
sS'tower'
p1378
I1
sS'manag'
p1379
I6
sS'65'
p1380
I1
sS'fulfil'
p1381
I1
sS'madrid'
p1382
I1
sS'titan'
p1383
I3
sS'legitim'
p1384
I1
sS'chuck'
p1385
I2
sS'may\xef\xbf\xbd\xef\xbf\xbd\xef\xbf\xbd'
p1386
I1
sS'constitut'
p1387
I1
sS'gross'
p1388
I2
sS'kellyann'
p1389
I1
sS'confirm'
p1390
I9
sS'\xef\xbf\xbd\xef\xbf\xbd\xef\xbf\xbdlate'
p1391
I1
sS'you\xef\xbf\xbd\xef\xbf\xbd\xef\xbf\xbdv'
p1392
I2
sS'ryan\xef\xbf\xbd\xef\xbf\xbd\xef\xbf\xbd'
p1393
I1
sS'legal'
p1394
I3
sS'moon'
p1395
I3
sS'dealership'
p1396
I1
sS'exit'
p1397
I2
sS'winn\xef\xbf\xbd\xef\xbf\xbd'
p1398
I1
sS'ceasefir'
p1399
I1
sS'squirt'
p1400
I1
sS'you\xef\xbf\xbd\xef\xbf\xbd\xef\xbf\xbdd'
p1401
I1
sS'notabl'
p1402
I1
sS'power'
p1403
I6
sS'broken'
p1404
I3
sS'here\xef\xbf\xbd\xef\xbf\xbd\xef\xbf\xbd'
p1405
I1
sS'restiv'
p1406
I1
sS'fulli'
p1407
I1
sS'thailand'
p1408
I1
sS'throw'
p1409
I1
sS'brighton'
p1410
I1
sS'acc'
p1411
I1
sS'stone'
p1412
I3
sS'wolv'
p1413
I1
sS'testimoni'
p1414
I1
sS'sri'
p1415
I1
sS'statham\xce\xbebattl'
p1416
I1
sS'neighbor'
p1417
I1
sS'streamlined\xef\xbf\xbd\xef\xbf\xbd\xef\xbf\xbd'
p1418
I1
sS'industri'
p1419
I8
sS'assassin'
p1420
I1
sS'allianc'
p1421
I1
sS'routin'
p1422
I1
sS'bbc'
p1423
I11
sS'snapchat'
p1424
I3
sS'surviv'
p1425
I2
sS'quietli'
p1426
I2
sS'watchdog'
p1427
I1
sS'nurs'
p1428
I2
sS'area'
p1429
I1
sS'racism'
p1430
I1
sS'start'
p1431
I7
sS'low'
p1432
I6
sS'lot'
p1433
I3
sS'farid'
p1434
I1
sS'hen'
p1435
I1
sS'valley'
p1436
I1
sS'hodg'
p1437
I1
sS'media'
p1438
I18
sS'bottl'
p1439
I1
sS'hard'
p1440
I2
sS'enough'
p1441
I1
sS'pitcher'
p1442
I1
sS'warrington'
p1443
I2
sS'striker'
p1444
I2
sS'mischiev'
p1445
I1
sS'jurvetson'
p1446
I1
sS'lanc'
p1447
I1
sS'konigsse'
p1448
I1
sS'adrienn'
p1449
I1
sS'undisclos'
p1450
I1
sS'pull'
p1451
I1
sS'tripl'
p1452
I2
sS'fraud'
p1453
I1
sS'cassidi'
p1454
I1
sS'possibl'
p1455
I2
sS'crawford'
p1456
I1
sS'nearest'
p1457
I1
sS'unusu'
p1458
I1
sS'embed'
p1459
I1
sS'hasn\xef\xbf\xbd\xef\xbf\xbd\xef\xbf\xbdt'
p1460
I1
sS'connect'
p1461
I1
sS'gone'
p1462
I1
sS'cnbc'
p1463
I1
sS'taylor'
p1464
I1
sS'ad'
p1465
I1
sS'creat'
p1466
I4
sS'certain'
p1467
I1
sS'al'
p1468
I1
sS'deep'
p1469
I2
sS'nerv'
p1470
I2
sS'ap'
p1471
I3
sS'britain'
p1472
I4
sS'aw'
p1473
I1
sS'cultur'
p1474
I1
sS'portland'
p1475
I1
sS'film'
p1476
I5
sS'googl'
p1477
I7
sS'products\xce\xbein'
p1478
I1
sS'zelda'
p1479
I3
sS'brokerag'
p1480
I1
sS'field'
p1481
I1
sS'5'
I4
sS'gustavito'
p1482
I1
sS'man\xef\xbf\xbd\xef\xbf\xbd\xef\xbf\xbdor'
p1483
I1
sS'shaun'
p1484
I2
sS'championship'
p1485
I14
sS'congress'
p1486
I13
sS'annex'
p1487
I1
sS'shelter'
p1488
I1
sS'\xce\xbeand'
p1489
I1
sS'berman'
p1490
I1
sS'acosta'
p1491
I1
sS'peak'
p1492
I1
sS'60m'
p1493
I1
sS'pelosi'
p1494
I1
sS'peac'
p1495
I3
sS'pool'
p1496
I1
sS'studio'
p1497
I1
sS'wife'
p1498
I2
sS'invest'
p1499
I5
sS'dog'
p1500
I3
sS'descript'
p1501
I1
sS'barcelona'
p1502
I2
sS'hello'
p1503
I1
sS'moonlight'
p1504
I6
sS'u'
I26
sS'adam'
p1505
I2
sS'potenti'
p1506
I4
sS'mourner'
p1507
I1
sS'bolton'
p1508
I1
sS'reappli'
p1509
I1
sS'aramco'
p1510
I1
sS'sergei'
p1511
I2
sS'skeleton'
p1512
I1
sS'founder'
p1513
I3
sS'ali'
p1514
I1
sS'messi'
p1515
I1
sS'panel'
p1516
I1
sS'dollar'
p1517
I3
sS'month'
p1518
I12
sS'sergey'
p1519
I1
sS'abil'
p1520
I1
sS'follow'
p1521
I9
sS'settlement'
p1522
I2
sS'children'
p1523
I4
sS'abid'
p1524
I1
sS'carpet'
p1525
I2
sS'unansw'
p1526
I1
sS'myle'
p1527
I1
sS'schiff'
p1528
I2
sS'tx'
p1529
I1
sS'know\xce\xbeyou'
p1530
I1
sS'tv'
p1531
I2
sS'thursday'
p1532
I11
sS'former'
p1533
I19
sS'program'
p1534
I8
sS'present'
p1535
I6
sS'89th'
p1536
I3
sS'norm'
p1537
I1
sS'hill'
p1538
I1
sS'woman'
p1539
I4
sS'premium'
p1540
I1
sS'parcel'
p1541
I1
sS'egyptian'
p1542
I1
sS'far'
p1543
I2
sS'soni'
p1544
I1
sS'roe'
p1545
I3
sS'personnel'
p1546
I1
sS'candid'
p1547
I5
sS'fan'
p1548
I1
sS'fall'
p1549
I2
sS'\xef\xbf\xbd\xef\xbf\xbd\xef\xbf\xbd'
p1550
I11
sS'ticket'
p1551
I1
sS'vern'
p1552
I1
sS'alien'
p1553
I3
sS'harri'
p1554
I2
sS'list'
p1555
I5
sS'laud'
p1556
I1
sS'doesn\xef\xbf\xbd\xef\xbf\xbd\xef\xbf\xbdt'
p1557
I3
sS'saudi'
p1558
I2
sS'small'
p1559
I1
sS'mosul'
p1560
I2
sS'ten'
p1561
I1
sS'ted'
p1562
I1
sS'past'
p1563
I3
sS'nune'
p1564
I1
sS'rate'
p1565
I4
sS'pressur'
p1566
I5
sS'design'
p1567
I1
sS'lawyer'
p1568
I2
sS'pass'
p1569
I1
sS'nbc'
p1570
I2
sS'sessions\xce\xbehad'
p1571
I1
sS'as\xce\xbewin'
p1572
I1
sS'richard'
p1573
I2
sS'skeptic'
p1574
I1
sS'agenda'
p1575
I1
sS'advanc'
p1576
I1
sS'brief'
p1577
I1
sS'crush'
p1578
I1
sS'schumer'
p1579
I1
sS'version'
p1580
I1
sS'un\xef\xbf\xbd\xef\xbf\xbd\xef\xbf\xbd'
p1581
I1
sS'garth'
p1582
I1
sS'hurdl'
p1583
I1
sS'public'
p1584
I9
sS'movement'
p1585
I1
sS'full'
p1586
I2
sS'christian'
p1587
I1
sS'christi'
p1588
I1
sS'pacif'
p1589
I1
sS'theresa'
p1590
I2
sS'modular'
p1591
I1
sS'manchest'
p1592
I3
sS'strong'
p1593
I2
sS'legend'
p1594
I3
sS'valu'
p1595
I4
sS'search'
p1596
I4
sS'ahead'
p1597
I6
sS'touchlin'
p1598
I1
sS'soldier'
p1599
I1
sS'airport'
p1600
I2
sS'pick'
p1601
I1
sS'action'
p1602
I7
sS'narrow'
p1603
I1
sS'mcdonnel'
p1604
I2
sS'via'
p1605
I1
sS'depart'
p1606
I8
sS'fanfar'
p1607
I1
sS'ask'
p1608
I7
sS'snub'
p1609
I1
sS'sanction'
p1610
I1
sS'couldn\xef\xbf\xbd\xef\xbf\xbd\xef\xbf\xbdt'
p1611
I1
sS'abdel'
p1612
I2
sS'establish'
p1613
I2
sS'select'
p1614
I1
sS'aggress'
p1615
I1
sS'khan'
p1616
I1
sS'bipartisan'
p1617
I2
sS'injuri'
p1618
I1
sS'wield'
p1619
I1
sS'two'
p1620
I17
sS'coverag'
p1621
I9
sS'almost'
p1622
I2
sS'morn'
p1623
I4
sS'soundcloud'
p1624
I1
sS'6'
I2
sS'taken'
p1625
I1
sS'minor'
p1626
I1
sS'israel'
p1627
I6
sS'desir'
p1628
I1
sS'hundr'
p1629
I4
sS'draughti'
p1630
I1
sS'leonard'
p1631
I1
sS'flag'
p1632
I1
sS'stick'
p1633
I2
sS'eight\xce\xbeenlighten'
p1634
I1
sS'known'
p1635
I5
sS'compani'
p1636
I12
sS'but\xce\xbeth'
p1637
I1
sS'town'
p1638
I3
sS'dictat'
p1639
I1
sS'endpoint'
p1640
I1
sS'hour'
p1641
I4
sS'hous'
p1642
I27
sS'outlin'
p1643
I1
sS'dev'
p1644
I1
sS'histori'
p1645
I2
sS'remain'
p1646
I4
sS'nine'
p1647
I1
sS'morgan'
p1648
I2
sS'learn'
p1649
I5
sS'abandon'
p1650
I2
sS'yemen'
p1651
I3
sS'orlean'
p1652
I1
sS'shark'
p1653
I1
sS'prompt'
p1654
I1
sS'valuabl'
p1655
I1
sS'challeng'
p1656
I4
sS'share'
p1657
I6
sS'accept'
p1658
I2
sS'firmli'
p1659
I1
sS'maguir'
p1660
I1
sS'explor'
p1661
I3
sS'partner'
p1662
I1
sS'dress'
p1663
I1
sS'inspector'
p1664
I1
sS'unlucki'
p1665
I1
sS'huge'
p1666
I1
sS'cours'
p1667
I4
sS'court'
p1668
I5
sS'goal'
p1669
I3
sS'freshli'
p1670
I1
sS'secur'
p1671
I23
sS'anoth'
p1672
I1
sS'comfort'
p1673
I1
sS'amazon'
p1674
I1
sS'days\xce\xbefrom'
p1675
I1
sS'narrowli'
p1676
I1
sS'reject'
p1677
I1
sS'indianapoli'
p1678
I1
sS'plant'
p1679
I1
sS'circuit'
p1680
I2
sS'pozzi'
p1681
I1
sS'rudi'
p1682
I1
sS'alibaba'
p1683
I1
sS'fa'
p1684
I9
sS'fc'
p1685
I1
sS'embrac'
p1686
I1
sS'blood'
p1687
I1
sS'heartbeat'
p1688
I1
sS'ironman'
p1689
I1
sS'associ'
p1690
I3
sS'short'
p1691
I1
sS'coax'
p1692
I1
sS'susan'
p1693
I1
sS'puzder'
p1694
I4
sS'author'
p1695
I2
sS'caus'
p1696
I1
sS'country\xef\xbf\xbd\xef\xbf\xbd\xef\xbf\xbd'
p1697
I2
sS'dream'
p1698
I2
sS'began'
p1699
I3
sS'constitu'
p1700
I2
sS'help'
p1701
I6
sS'fantasi'
p1702
I1
sS'soon'
p1703
I2
sS'trade'
p1704
I6
sS'held'
p1705
I1
sS'rounder'
p1706
I1
sS'scientist'
p1707
I1
sS'helm'
p1708
I1
sS'suffer'
p1709
I1
sS'islam'
p1710
I5
sS'24'
p1711
I1
sS'25'
p1712
I1
sS'style'
p1713
I1
sS'27'
p1714
I1
sS'20'
p1715
I3
sS'21'
p1716
I2
sS'23'
p1717
I2
sS'environmentalist'
p1718
I2
sS'gerald'
p1719
I1
sS'29'
p1720
I1
sS'alli'
p1721
I5
sS'late'
p1722
I10
sS'harmless'
p1723
I1
sS'pend'
p1724
I1
sS'penc'
p1725
I5
sS'stephen'
p1726
I1
sS'bout'
p1727
I1
sS'soccer'
p1728
I1
sS'senat'
p1729
I6
sS'mcilroy'
p1730
I1
sS'good'
p1731
I7
sS'return'
p1732
I6
sS'ceo'
p1733
I3
sS'sentenc'
p1734
I2
sS'ukrain'
p1735
I1
sS'framework'
p1736
I2
sS'malek'
p1737
I1
sS'somebodi'
p1738
I1
sS'foot'
p1739
I1
sS'ninja'
p1740
I1
sS'oper'
p1741
I2
sS'they\xef\xbf\xbd\xef\xbf\xbd\xef\xbf\xbdr'
p1742
I1
sS'refresh'
p1743
I1
sS'2d'
p1744
I1
sS'easili'
p1745
I1
sS'achiev'
p1746
I3
sS'undertak'
p1747
I1
sS'knight'
p1748
I1
sS'found'
p1749
I5
sS'fees\xef\xbf\xbd\xef\xbf\xbd\xef\xbf\xbdth'
p1750
I1
sS'shooting\xce\xbemodern'
p1751
I1
sS'breakdown'
p1752
I1
sS'england'
p1753
I12
sS'monoton'
p1754
I1
sS'idea'
p1755
I2
sS'fractur'
p1756
I1
sS'realli'
p1757
I2
sS'heavi'
p1758
I2
sS'putin'
p1759
I1
sS'expect'
p1760
I4
sS'todd'
p1761
I2
sS'energi'
p1762
I1
sS'beyond'
p1763
I1
sS'dunaway'
p1764
I3
sS'event'
p1765
I4
sS'massiv'
p1766
I1
sS'suprem'
p1767
I2
sS'\xce\xa343bn'
p1768
I1
sS'publish'
p1769
I3
sS'health'
p1770
I9
sS'ibrahimov'
p1771
I2
sS'7'
I2
sS'testifi'
p1772
I1
sS'highway'
p1773
I1
sS'benjamin'
p1774
I4
sS'wework'
p1775
I1
sS'qualifi'
p1776
I1
sS'rumor'
p1777
I1
sS'he\xef\xbf\xbd\xef\xbf\xbd\xef\xbf\xbdll'
p1778
I1
sS'obamacar'
p1779
I8
sS'friday'
p1780
I8
sS'eddi'
p1781
I2
sS'reason'
p1782
I2
sS'base'
p1783
I2
sS'believ'
p1784
I8
sS'dire'
p1785
I1
sS'atletico'
p1786
I1
sS'put'
p1787
I5
sS'teach'
p1788
I2
sS'basi'
p1789
I1
sS'launch'
p1790
I6
sS'struggl'
p1791
I3
sS'revolutionari'
p1792
I1
sS'american'
p1793
I9
sS'threat'
p1794
I1
sS'syria'
p1795
I4
sS'lifetim'
p1796
I1
sS'favorit'
p1797
I1
sS'major'
p1798
I12
sS'wilder'
p1799
I1
sS'feel'
p1800
I1
sS'exchang'
p1801
I3
sS'number'
p1802
I8
sS'customers\xef\xbf\xbd\xef\xbf\xbd\xef\xbf\xbd'
p1803
I1
sS'tangl'
p1804
I1
sS'pop'
p1805
I1
sS'revolution'
p1806
I1
sS'done'
p1807
I1
sS'least'
p1808
I3
sS'mistakenli'
p1809
I1
sS'miss'
p1810
I3
sS'differ'
p1811
I5
sS'guest'
p1812
I4
sS'script'
p1813
I1
sS'construct'
p1814
I1
sS'stori'
p1815
I4
sS'station'
p1816
I1
sS'statement'
p1817
I7
sS'dfj'
p1818
I1
sS'illeg'
p1819
I2
sS'twenti'
p1820
I1
sS'beijing\xef\xbf\xbd\xef\xbf\xbd\xef\xbf\xbd'
p1821
I2
sS'disagr'
p1822
I1
sS'nant'
p1823
I1
sS'option'
p1824
I1
sS'relationship'
p1825
I4
sS'lawmak'
p1826
I4
sS'norma'
p1827
I2
sS'hotel'
p1828
I1
sS'park'
p1829
I1
sS'pari'
p1830
I1
sS'doan'
p1831
I1
sS'part'
p1832
I5
sS'claudio'
p1833
I8
sS'obama'
p1834
I3
sS'king'
p1835
I3
sS'twister'
p1836
I1
sS'odi'
p1837
I1
sS'perfum'
p1838
I1
sS'ouster'
p1839
I1
sS'camilia'
p1840
I1
sS'bridg'
p1841
I2
sS'architect'
p1842
I1
sS'2022'
p1843
I1
sS'consumpt'
p1844
I1
sS'danc'
p1845
I2
sS'amass'
p1846
I1
sS'cabello'
p1847
I1
sS'hangout'
p1848
I1
sS'sonntagszeitung'
p1849
I1
sS'sell'
p1850
I1
sS'built'
p1851
I1
sS'zero'
p1852
I2
sS'commentari'
p1853
I4
sS'scotland'
p1854
I6
sS'also'
p1855
I3
sS'labour'
p1856
I2
sS'efl'
p1857
I2
sS'useless'
p1858
I1
sS'beshear'
p1859
I1
sS'play'
p1860
I4
sS'mary\xef\xbf\xbd\xef\xbf\xbd\xef\xbf\xbd'
p1861
I1
sS'distribut'
p1862
I1
sS'newcastl'
p1863
I1
sS'goldman'
p1864
I2
sS'its\xce\xbetitan'
p1865
I1
sS'previou'
p1866
I2
sS'reach'
p1867
I7
sS'react'
p1868
I2
sS'prolifer'
p1869
I1
sS'plan'
p1870
I20
sS'70'
p1871
I1
sS'alpha'
p1872
I1
sS'charg'
p1873
I2
sS'78'
p1874
I1
sS'vizguerra'
p1875
I1
sS'clear'
p1876
I4
sS'cover'
p1877
I2
sS'chaotic\xce\xbeday'
p1878
I1
sS'clean'
p1879
I1
sS'enclav'
p1880
I1
sS'microsoft'
p1881
I3
sS'rogu'
p1882
I1
sS'surg'
p1883
I1
sS'commerc'
p1884
I2
sS'golf'
p1885
I2
sS'gold'
p1886
I2
sS'sparrow'
p1887
I1
sS'jeanett'
p1888
I1
sS'golo'
p1889
I1
sS'session'
p1890
I19
sS'mcclendon'
p1891
I1
sS'fine'
p1892
I1
sS'find'
p1893
I4
sS'that\xef\xbf\xbd\xef\xbf\xbd\xc8\x8a\xef\xbf\xbd'
p1894
I1
sS'impact'
p1895
I1
sS'\xce\xbethat'
p1896
I1
sS'giant'
p1897
I3
sS'northern'
p1898
I2
sS'konta'
p1899
I1
sS'central'
p1900
I1
sS'8'
I5
sS'edelman'
p1901
I1
sS'unhappi'
p1902
I1
sS'hit'
p1903
I3
sS'conferenc'
p1904
I1
sS'alicia'
p1905
I1
sS'intensifi'
p1906
I1
sS'grew'
p1907
I1
sS'batter'
p1908
I1
sS'ninth'
p1909
I1
sS'casino'
p1910
I1
sS'ambiti'
p1911
I1
sS'pence\xef\xbf\xbd\xef\xbf\xbd\xef\xbf\xbd'
p1912
I1
sS'dustin'
p1913
I1
sS'bet'
p1914
I2
sS'nickelodeon'
p1915
I1
sS'enemi'
p1916
I2
sS'common'
p1917
I2
sS'coptic'
p1918
I1
sS'show\xef\xbf\xbd\xef\xbf\xbd\xef\xbf\xbd'
p1919
I1
sS'remov'
p1920
I1
sS'set'
p1921
I13
sS'art'
p1922
I1
sS'i\xef\xbf\xbd\xef\xbf\xbd'
p1923
I1
sS'startup'
p1924
I3
sS'see'
p1925
I4
sS'barb'
p1926
I1
sS'sea'
p1927
I1
sS'sen'
p1928
I6
sS'aberdeen'
p1929
I1
sS'paul'
p1930
I6
sS'analog'
p1931
I1
sS'chose'
p1932
I1
sS'merseysid'
p1933
I1
sS'jenkin'
p1934
I1
sS'someth'
p1935
I1
sS'particip'
p1936
I1
sS'debat'
p1937
I4
sS'pickup'
p1938
I1
sS'mcmaster'
p1939
I1
sS'guilt'
p1940
I1
sS'swansea'
p1941
I1
sS'altern'
p1942
I2
sS'korea'
p1943
I4
sS'erni'
p1944
I1
sS'keyboard'
p1945
I1
sS'aspir'
p1946
I1
sS'isol'
p1947
I1
sS'outfit'
p1948
I1
sS'spray'
p1949
I1
sS'succeed'
p1950
I1
sS'solv'
p1951
I1
sS'europ'
p1952
I3
sS'popul'
p1953
I2
sS'centerpiec'
p1954
I1
sS'sinn'
p1955
I1
sS'last'
p1956
I19
sS'annual'
p1957
I1
sS'alon'
p1958
I1
sS'foreign'
p1959
I8
sS'mean'
p1960
I2
sS'whole'
p1961
I1
sS'jeff'
p1962
I12
sS'schedul'
p1963
I1
sS'derid'
p1964
I1
sS'sweep'
p1965
I2
sS'strategi'
p1966
I1
sS'megatrend'
p1967
I1
sS'vardi'
p1968
I1
sS'crispr'
p1969
I1
sS'batteri'
p1970
I2
sS'mistak'
p1971
I2
sS'bench'
p1972
I1
sS'provoc'
p1973
I1
sS'bolster'
p1974
I1
sS'devin'
p1975
I1
sS'pt'
p1976
I1
sS'arrest'
p1977
I4
sS'stamp'
p1978
I1
sS'dub'
p1979
I1
sS'devic'
p1980
I2
sS'add'
p1981
I2
sS'\xce\xa36'
p1982
I1
sS'newcom'
p1983
I1
sS'been\xce\xbedelay'
p1984
I1
sS'ireland'
p1985
I1
sS'wait'
p1986
I2
sS'\xce\xbeinto'
p1987
I1
sS'dame'
p1988
I1
sS'firm'
p1989
I3
sS'modern'
p1990
I1
sS'flight'
p1991
I2
sS'champion'
p1992
I7
sS'fire'
p1993
I4
sS'imag'
p1994
I2
sS'great'
p1995
I4
sS'fund'
p1996
I5
sS'partli'
p1997
I1
sS'demand'
p1998
I2
sS'educ'
p1999
I1
sS'clinton\xef\xbf\xbd\xef\xbf\xbd\xef\xbf\xbd'
p2000
I1
sS'look'
p2001
I12
sS'straight'
p2002
I1
sS'bill'
p2003
I10
sS'budget'
p2004
I8
sS'governor'
p2005
I3
sS'ewood'
p2006
I1
sS'rope'
p2007
I1
sS'pace'
p2008
I1
sS'unifi'
p2009
I1
sS'kick'
p2010
I5
sS'slyli'
p2011
I1
sS'error'
p2012
I3
sS'fun'
p2013
I1
sS'anonym'
p2014
I1
sS'pack'
p2015
I2
sS'grip'
p2016
I2
sS'pound'
p2017
I1
sS'readi'
p2018
I2
sS'mystic'
p2019
I2
sS'owen'
p2020
I5
sS'vow'
p2021
I2
sS'headway'
p2022
I1
sS'centuri'
p2023
I1
sS'rig'
p2024
I1
sS'illinoi'
p2025
I1
sS'chase'
p2026
I1
sS'deadpool'
p2027
I1
sS'grant'
p2028
I1
sS'itali'
p2029
I4
sS'corridor'
p2030
I1
sS'grand'
p2031
I2
sS'9'
I1
sS'octan'
p2032
I1
sS'ruth'
p2033
I1
sS'higher'
p2034
I5
sS'flurri'
p2035
I1
sS'optim'
p2036
I1
sS'7in'
p2037
I1
sS'longtim'
p2038
I1
sS'blair'
p2039
I1
sS'burnley'
p2040
I2
sS'cement'
p2041
I1
sS'moment'
p2042
I6
sS'000'
p2043
I7
sS'user'
p2044
I1
sS'priceless'
p2045
I1
sS'spicer'
p2046
I2
sS'recent'
p2047
I5
sS'kurdish'
p2048
I1
sS'lower'
p2049
I1
sS'earmark'
p2050
I1
sS'machineri'
p2051
I1
sS'kelli'
p2052
I3
sS'poland'
p2053
I1
sS'punctuat'
p2054
I1
sS'iplay'
p2055
I3
sS'maker'
p2056
I1
sS'person'
p2057
I5
sS'expens'
p2058
I3
sS'withdraw'
p2059
I1
sS'spend'
p2060
I6
sS'propos'
p2061
I9
sS'ambassador'
p2062
I10
sS'shape'
p2063
I1
sS'behind'
p2064
I9
sS'unilev'
p2065
I1
sS'timber'
p2066
I1
sS'wage'
p2067
I1
sS'cut'
p2068
I8
sS'see\xce\xbejason'
p2069
I1
sS'tablet'
p2070
I3
sS'cup'
p2071
I11
sS'barack'
p2072
I3
sS'homeland'
p2073
I5
sS'snap'
p2074
I6
sS'hombr'
p2075
I1
sS'cum'
p2076
I1
sS'cemeteri'
p2077
I1
sS'chairman'
p2078
I7
sS'australia'
p2079
I1
sS'march'
p2080
I8
sS'stein'
p2081
I1
sS'format'
p2082
I1
sS'trigg'
p2083
I1
sS'big'
p2084
I8
sS'rebound'
p2085
I2
sS'lincoln'
p2086
I3
sS'game'
p2087
I7
sS'wii'
p2088
I1
sS'emma'
p2089
I2
sS'softbank'
p2090
I1
sS'knock'
p2091
I2
sS'britain\xef\xbf\xbd\xef\xbf\xbd\xef\xbf\xbd'
p2092
I1
sS'lost'
p2093
I3
sS'apologis'
p2094
I2
sS'confront'
p2095
I1
sS'toyota'
p2096
I1
sS'underway'
p2097
I1
sS'heart'
p2098
I3
sS'api'
p2099
I1
sS'baggag'
p2100
I1
sS'popular'
p2101
I1
sS'door'
p2102
I1
sS'embroil'
p2103
I1
sS'back'
p2104
I19
sS'global'
p2105
I2
sS'litter'
p2106
I1
sS'allgemein'
p2107
I1
sS'mideast'
p2108
I1
sS'mirror'
p2109
I1
sS'insur'
p2110
I3
sS'surpris'
p2111
I2
sS'scale'
p2112
I2
sS'debri'
p2113
I1
sS'montag'
p2114
I1
sS'per'
p2115
I1
sS'pen'
p2116
I1
sS'larg'
p2117
I1
sS'slash'
p2118
I2
sS'that\xef\xbf\xbd\xef\xbf\xbd\xef\xbf\xbd'
p2119
I3
sS'novelti'
p2120
I1
sS'prob'
p2121
I1
sS'either'
p2122
I1
sS'machin'
p2123
I2
sS'ivascyn'
p2124
I1
sS'potterabook'
p2125
I1
sS'run'
p2126
I6
sS'hamstr'
p2127
I1
sS'martin'
p2128
I1
sS'agreement'
p2129
I1
sS'devlin'
p2130
I1
sS'step'
p2131
I3
sS'patienc'
p2132
I1
sS'output'
p2133
I1
sS'abroad'
p2134
I1
sS'daimler'
p2135
I1
sS'rhi'
p2136
I1
sS'hawkish'
p2137
I1
sS'netflix'
p2138
I1
sS'page'
p2139
I1
sS'drama'
p2140
I2
sS'stuart'
p2141
I1
sS'block'
p2142
I1
sS'miracl'
p2143
I1
sS'clinton'
p2144
I4
sS'within'
p2145
I3
sS'democrat'
p2146
I11
sS'jimmi'
p2147
I1
sS'steven'
p2148
I1
sS'lesson'
p2149
I2
sS'artifici'
p2150
I1
sS'pentagon'
p2151
I2
sS'implic'
p2152
I1
sS'institut'
p2153
I2
sS'pundit'
p2154
I1
sS'question'
p2155
I5
sS'long'
p2156
I6
sS'custom'
p2157
I1
sS'crackdown'
p2158
I1
sS'includ'
p2159
I10
sS'forward'
p2160
I4
sS'lotteri'
p2161
I1
sS'sinai'
p2162
I1
sS'spat'
p2163
I1
sS'blueprint'
p2164
I1
sS'raggett'
p2165
I1
sS'larri'
p2166
I1
sS'reorgan'
p2167
I1
sS'jewish'
p2168
I1
sS'atop'
p2169
I1
sS'link'
p2170
I2
sS'frida'
p2171
I1
sS'russian'
p2172
I25
sS'line'
p2173
I3
sS'isra'
p2174
I6
sS'angri'
p2175
I3
sS'info'
p2176
I1
sS'cia'
p2177
I1
sS'consist'
p2178
I1
sS'hamann'
p2179
I1
sS'us'
p2180
I30
sS'planet'
p2181
I1
sS'growth'
p2182
I2
sS'\xef\xbf\xbd\xef\xbf\xbd\xef\xbf\xbdmoonlight\xef\xbf\xbd\xef\xbf\xbd\xef\xbf\xbd'
p2183
I1
sS'prosecutor'
p2184
I4
sS'uk'
p2185
I6
sS'schwarzenegg'
p2186
I1
sS'highlight'
p2187
I1
sS'chelsea'
p2188
I1
sS'uber'
p2189
I8
sS'v'
I3
sS'constant'
p2190
I1
sS'ralli'
p2191
I6
sS'cleveland'
p2192
I1
sS'chao'
p2193
I2
sS'repres'
p2194
I2
sS'graham'
p2195
I1
sS'curtain'
p2196
I1
sS'varga'
p2197
I1
sS'titl'
p2198
I2
sS'nam'
p2199
I2
sS'afford'
p2200
I2
sS'gra'
p2201
I1
sS'medicar'
p2202
I1
sS'draw'
p2203
I4
sS'resign'
p2204
I5
sS'william'
p2205
I2
sS'evan'
p2206
I1
sS'wrongli'
p2207
I1
sS'ago'
p2208
I2
sS'land'
p2209
I6
sS'fighter'
p2210
I1
sS'vice'
p2211
I5
sS'dismantl'
p2212
I1
sS'age'
p2213
I3
sS'orbit'
p2214
I1
sS'nasa'
p2215
I2
sS'dot'
p2216
I1
sS'bribe'
p2217
I1
sS'fresh'
p2218
I2
sS'garrett'
p2219
I1
sS'svp'
p2220
I1
sS'mardi'
p2221
I1
sS'partial'
p2222
I3
sS'edg'
p2223
I1
sS'hint'
p2224
I3
sS'merced'
p2225
I3
sS'steve'
p2226
I4
sS'landscap'
p2227
I1
sS'broader'
p2228
I1
sS'go'
p2229
I18
sS'gossip'
p2230
I1
sS'titan\xef\xbf\xbd\xef\xbf\xbd\xef\xbf\xbd'
p2231
I1
sS'privat'
p2232
I7
sS'simon'
p2233
I1
sS'elsewher'
p2234
I1
sS'young'
p2235
I2
sS'send'
p2236
I3
sS'moor'
p2237
I1
sS'becam'
p2238
I3
sS'jeremi'
p2239
I1
sS'sent'
p2240
I4
sS'passiv'
p2241
I1
sS'g6'
p2242
I1
sS'g5'
p2243
I1
sS'disclos'
p2244
I2
sS'nomine'
p2245
I5
sS'wave'
p2246
I1
sS'unbeaten'
p2247
I1
sS'flintoff'
p2248
I1
sS'electron'
p2249
I2
sS'facebook'
p2250
I3
sS'stalem'
p2251
I1
sS'twice'
p2252
I3
sS'implement'
p2253
I1
sS'tri'
p2254
I8
sS'carmak'
p2255
I1
sS'complic'
p2256
I2
sS'shock'
p2257
I3
sS'michael'
p2258
I10
sS'ryan'
p2259
I6
sS'financ'
p2260
I2
sS'race'
p2261
I6
sS'mirai'
p2262
I1
sS'inaugur'
p2263
I3
sS'marri'
p2264
I2
sS'rack'
p2265
I1
sS'vehicl'
p2266
I3
sS'smaller'
p2267
I1
sS'fortun'
p2268
I2
sS'carter'
p2269
I1
sS'khalifa'
p2270
I1
sS'flu'
p2271
I1
sS'policymak'
p2272
I1
sS'cav'
p2273
I1
sS'lethal'
p2274
I1
sS'video'
p2275
I8
sS'equal'
p2276
I1
sS'compat'
p2277
I1
sS'index'
p2278
I1
sS'chicago'
p2279
I1
sS'cell'
p2280
I1
sS'huawei'
p2281
I1
sS'experiment'
p2282
I2
sS'mnuchin'
p2283
I1
sS'bird'
p2284
I1
sS'penalti'
p2285
I1
sS'poverti'
p2286
I2
sS'lee'
p2287
I1
sS'despit'
p2288
I1
sS'bodi'
p2289
I1
sS'party\xef\xbf\xbd\xef\xbf\xbd\xef\xbf\xbd'
p2290
I1
sS'let'
p2291
I1
sS'becom'
p2292
I7
sS'sinc'
p2293
I9
sS'cyclist'
p2294
I1
sS'stellar'
p2295
I1
sS'remark'
p2296
I3
sS'pretti'
p2297
I1
sS'derbi'
p2298
I1
sS'mclaren'
p2299
I2
sS'technolog'
p2300
I7
sS'34'
p2301
I1
sS'manager\xce\xbebil'
p2302
I1
sS'defeat'
p2303
I1
sS'earli'
p2304
I5
sS'opinion'
p2305
I1
sS'chang'
p2306
I6
sS'honor'
p2307
I2
sS'chanc'
p2308
I1
sS'manni'
p2309
I1
sS'clark'
p2310
I1
sS'danger'
p2311
I1
sS'win'
p2312
I23
sS'app'
p2313
I4
sS'pouill'
p2314
I1
sS'inequ'
p2315
I1
sS'zlatan'
p2316
I2
sS'minnesota'
p2317
I3
sS'presidenti'
p2318
I7
sS'motor'
p2319
I2
sS'scandal'
p2320
I2
sS'wiz'
p2321
I1
sS'use'
p2322
I11
sS'fee'
p2323
I1
sS'feb'
p2324
I1
sS'cheeki'
p2325
I1
sS'usa'
p2326
I1
sS'commun'
p2327
I5
sS'next'
p2328
I5
sS'websit'
p2329
I1
sS'doubt'
p2330
I4
sS'advoc'
p2331
I2
sS'cram'
p2332
I1
sS'jonathan'
p2333
I1
sS'sort'
p2334
I1
sS'babi'
p2335
I1
sS'tax'
p2336
I4
sS'impress'
p2337
I1
sS'gladiat'
p2338
I1
sS'train'
p2339
I1
sS'rare'
p2340
I1
sS'won\xef\xbf\xbd\xef\xbf\xbd\xef\xbf\xbdt'
p2341
I3
sS'olymp'
p2342
I3
sS'women'
p2343
I5
sS'annoy'
p2344
I2
sS'account'
p2345
I4
sS'retriev'
p2346
I1
sS'norkett'
p2347
I1
sS'tunnel'
p2348
I1
sS'ride'
p2349
I2
sS'crazi'
p2350
I1
sS'kleindienst'
p2351
I1
sS'drill'
p2352
I2
sS'meet'
p2353
I9
sS'aliv'
p2354
I1
sS'proof'
p2355
I1
sS'employe'
p2356
I2
sS'predecessor'
p2357
I3
sS'tap'
p2358
I2
sS'slip'
p2359
I1
sS'tar'
p2360
I1
sS'plate'
p2361
I1
sS'lock'
p2362
I3
sS'\xef\xbf\xbd\xef\xbf\xbd\xef\xbf\xbdluckiest'
p2363
I1
sS'amiibo'
p2364
I3
sS'high'
p2365
I5
sS'villain'
p2366
I1
sS'\xef\xbf\xbd\xef\xbf\xbd\xef\xbf\xbdsometh'
p2367
I2
sS'235'
p2368
I1
sS'sought'
p2369
I1
sS'crimin'
p2370
I1
sS'sir'
p2371
I2
sS'surfac'
p2372
I2
sS'sit'
p2373
I2
sS'six'
p2374
I7
sS'georg'
p2375
I1
sS'delay'
p2376
I1
sS'brian'
p2377
I1
sS'democraci'
p2378
I2
sS'instead'
p2379
I3
sS'chri'
p2380
I4
sS'stock'
p2381
I6
sS'fare'
p2382
I1
sS'honda'
p2383
I1
sS'attend'
p2384
I7
sS'bumblebe'
p2385
I1
sS'child\xef\xbf\xbd\xef\xbf\xbd\xef\xbf\xbd'
p2386
I1
sS'act'
p2387
I3
sS'iren'
p2388
I1
sS'attent'
p2389
I2
sS'sizabl'
p2390
I1
sS'underwat'
p2391
I1
sS'waterg'
p2392
I1
sS'essenti'
p2393
I2
sS'clarkson'
p2394
I1
sS'correspond'
p2395
I3
sS'revealed\xce\xbecontact'
p2396
I1
sS'issu'
p2397
I3
sS'chief'
p2398
I3
sS'allow'
p2399
I2
sS'houston'
p2400
I1
sS'reuter'
p2401
I1
sS'stamped'
p2402
I1
sS'movi'
p2403
I2
sS'move'
p2404
I9
sS'galaxi'
p2405
I4
sS'elit'
p2406
I2
sS'rigetti'
p2407
I1
sS'warren'
p2408
I5
sS'perfect'
p2409
I1
sS'1'
I2
sS'blake'
p2410
I1
sS'le'
p2411
I1
sS'affleck'
p2412
I1
sS'la'
p2413
I12
sS'dr'
p2414
I1
sS'hobbl'
p2415
I1
sS'labor'
p2416
I5
sS'spotifi'
p2417
I1
sS'2018'
p2418
I2
sS'2015'
p2419
I1
sS'2014'
p2420
I2
sS'decad'
p2421
I3
sS'2016'
p2422
I13
sS'2011'
p2423
I1
sS'techcrunch'
p2424
I1
sS'2013'
p2425
I1
sS'2012'
p2426
I2
sS'couchgat'
p2427
I1
sS'vergara'
p2428
I1
sS'crash'
p2429
I3
sS'greater'
p2430
I2
sS'handl'
p2431
I3
sS'auto'
p2432
I1
sS'overal'
p2433
I1
sS'tribut'
p2434
I2
sS'kiss'
p2435
I1
sS'overst'
p2436
I1
sS'front'
p2437
I3
sS'republican'
p2438
I13
sS'investor'
p2439
I7
sS'day'
p2440
I22
sS'schulner'
p2441
I1
sS'anyth'
p2442
I2
sS'nfl'
p2443
I4
sS'grassley'
p2444
I1
sS'beneath'
p2445
I1
sS'warner'
p2446
I1
sS'commonwealth'
p2447
I1
sS'intellig'
p2448
I11
sS'globe'
p2449
I1
sS'700'
p2450
I1
sS'consum'
p2451
I2
sS'wade'
p2452
I2
sS'80'
p2453
I2
sS'sexual'
p2454
I2
sS'special'
p2455
I4
sS'out'
p2456
I1
sS'rex'
p2457
I2
sS'rey'
p2458
I1
sS'patel'
p2459
I1
sS'singapor'
p2460
I1
sS'influenc'
p2461
I1
sS'endur'
p2462
I1
sS'rep'
p2463
I5
sS'fathom'
p2464
I1
sS'submerg'
p2465
I1
sS'discharg'
p2466
I1
sS'categori'
p2467
I1
sS'stuf'
p2468
I1
sS'stun'
p2469
I3
sS'defens'
p2470
I8
sS'red'
p2471
I6
sS'bellew'
p2472
I2
sS'franc'
p2473
I4
sS'hayom'
p2474
I1
sS'takeov'
p2475
I1
sS'durban'
p2476
I1
sS'spot'
p2477
I1
sS'contrarian'
p2478
I1
sS'undo'
p2479
I1
sS'york'
p2480
I6
sS'releas'
p2481
I4
sS'philip'
p2482
I1
sS'wateri'
p2483
I1
sS'turtl'
p2484
I1
sS'g'
I1
sS'someday'
p2485
I1
sS'year\xef\xbf\xbd\xef\xbf\xbd\xef\xbf\xbd'
p2486
I3
sS'could'
p2487
I13
sS'florida'
p2488
I3
sS'keep'
p2489
I1
sS'counterpart'
p2490
I2
sS'elector'
p2491
I1
sS'chicken'
p2492
I1
sS'enforc'
p2493
I2
sS'presid'
p2494
I82
sS'retail'
p2495
I1
sS'south'
p2496
I4
sS'endors'
p2497
I1
sS'indiscrimin'
p2498
I1
sS'scene'
p2499
I3
sS'sack'
p2500
I6
sS'echo'
p2501
I1
sS'cardiac'
p2502
I1
sS'phil'
p2503
I2
sS'owner'
p2504
I1
sS'facil'
p2505
I1
sS'prank'
p2506
I1
sS'playlist'
p2507
I1
sS'cnngo'
p2508
I1
sS'system'
p2509
I3
sS'messag'
p2510
I3
sS'attack'
p2511
I10
sS'appl'
p2512
I1
sS'termin'
p2513
I1
sS'final'
p2514
I12
sS'boil'
p2515
I1
sS'stomach'
p2516
I1
sS'gear'
p2517
I2
sS'eavesdrop'
p2518
I1
sS'viktor'
p2519
I1
sS'travi'
p2520
I4
sS'821\xef\xbf\xbd\xef\xbf\xbd'
p2521
I1
sS'spiegel'
p2522
I1
sS'valencia'
p2523
I1
sS'academi'
p2524
I6
sS'nobodi'
p2525
I1
sS'\xef\xbf\xbd\xef\xbf\xbd\xef\xbf\xbdthe'
p2526
I2
sS'ben'
p2527
I2
sS'johnson'
p2528
I1
sS'kant'
p2529
I1
sS'lion'
p2530
I2
sS'bed'
p2531
I1
sS'motherwel'
p2532
I1
sS'shakespear'
p2533
I1
sS'clip'
p2534
I1
sS'terribl'
p2535
I1
sS'julian'
p2536
I1
sS'muir'
p2537
I1
sS'robot'
p2538
I1
sS'corrupt'
p2539
I1
sS'immigr'
p2540
I9
sS'lightli'
p2541
I1
sS'tabl'
p2542
I3
sS'need'
p2543
I8
sS'border'
p2544
I2
sS'depict'
p2545
I1
sS'mix'
p2546
I1
sS'tactic'
p2547
I3
sS'kingdom\xef\xbf\xbd\xef\xbf\xbd\xef\xbf\xbd'
p2548
I1
sS'combin'
p2549
I4
sS'korean'
p2550
I4
sS'barn'
p2551
I1
sS'divers'
p2552
I1
sS'courtesi'
p2553
I1
sS'led'
p2554
I4
sS'mcgill'
p2555
I1
sS'combat'
p2556
I1
sS'preliminari'
p2557
I1
sS'discov'
p2558
I2
sS'kickstand'
p2559
I1
sS'visa'
p2560
I2
sS'eight'
p2561
I2
sS'attributed\xce\xbeto'
p2562
I1
sS'sedan'
p2563
I2
sS'cabinet'
p2564
I3
sS'medal'
p2565
I1
sS'payment'
p2566
I2
sS'family\xef\xbf\xbd\xef\xbf\xbd\xef\xbf\xbd'
p2567
I1
sS'urg'
p2568
I1
sS'expert'
p2569
I4
sS'skinni'
p2570
I1
sS'gather'
p2571
I1
sS'upset'
p2572
I2
sS'face'
p2573
I11
sS'deni'
p2574
I2
sS'upsel'
p2575
I1
sS'400m'
p2576
I1
sS'determin'
p2577
I4
sS'fowler'
p2578
I1
sS'indi'
p2579
I3
sS'buffett\xef\xbf\xbd\xef\xbf\xbd\xef\xbf\xbd'
p2580
I1
sS'fact'
p2581
I1
sS'impish'
p2582
I1
sS'text'
p2583
I7
sS'indoor'
p2584
I4
sS'plotter'
p2585
I1
sS'bring'
p2586
I5
sS'clearanc'
p2587
I1
sS'empir'
p2588
I1
sS'prehistor'
p2589
I1
sS'fear'
p2590
I2
sS'asylum'
p2591
I1
sS'economist'
p2592
I1
sS'staff'
p2593
I1
sS'betsi'
p2594
I1
sS'footbal'
p2595
I3
sS'costco'
p2596
I1
sS'locat'
p2597
I2
sS'jay'
p2598
I1
sS'jaw'
p2599
I1
sS'winner'
p2600
I10
sS'arabian'
p2601
I1
sS'suppos'
p2602
I1
sS'conclus'
p2603
I1
sS'handcuf'
p2604
I1
sS'communist'
p2605
I1
sS'local'
p2606
I2
sS'hope'
p2607
I3
sS'meant'
p2608
I2
sS'laviai'
p2609
I1
sS'beat'
p2610
I11
sS'familiar'
p2611
I2
sS'dope'
p2612
I1
sS'hire'
p2613
I3
sS'passeng'
p2614
I1
sS'120'
p2615
I1
sS'joint'
p2616
I3
sS'antarct'
p2617
I1
sS'fallout'
p2618
I2
sS'increas'
p2619
I4
sS'bronco'
p2620
I1
sS'experi'
p2621
I2
sS'organ'
p2622
I3
sS'cotter'
p2623
I1
sS'h'
I1
sS'drone'
p2624
I1
sS'juror'
p2625
I1
sS'widow'
p2626
I2
sS'unpalat'
p2627
I1
sS'warrior'
p2628
I2
sS'frame'
p2629
I1
sS'spinoff'
p2630
I1
sS'temporarili'
p2631
I1
sS'fournett'
p2632
I1
sS'stop'
p2633
I1
sS'entitl'
p2634
I1
sS'closer'
p2635
I2
sS'dungeon'
p2636
I1
sS'statu'
p2637
I1
sS'wire'
p2638
I1
sS'reform'
p2639
I2
sS'nuclear'
p2640
I2
sS'boundari'
p2641
I1
sS'superb'
p2642
I1
sS'state'
p2643
I19
sS'entrant'
p2644
I1
sS'progress'
p2645
I1
sS'wembley'
p2646
I1
sS'bunch'
p2647
I1
sS'email'
p2648
I3
sS'criticis'
p2649
I1
sS'janet'
p2650
I1
sS'lg'
p2651
I4
sS'alterc'
p2652
I1
sS'job'
p2653
I8
sS'doyl'
p2654
I1
sS'unwav'
p2655
I1
sS'joe'
p2656
I2
sS'key'
p2657
I8
sS'overhaul'
p2658
I2
sS'w'
I1
sS'lawsuit'
p2659
I1
sS'thank'
p2660
I1
sS'wilbur'
p2661
I1
sS'southeast'
p2662
I1
sS'career'
p2663
I5
sS'joke'
p2664
I1
sS'ramp'
p2665
I2
sS'aircraft'
p2666
I1
sS'rb13'
p2667
I1
sS'april'
p2668
I2
sS'admit'
p2669
I1
sS'admir'
p2670
I1
sS'committe'
p2671
I11
sS'lo'
p2672
I1
sS'volley'
p2673
I1
sS'barrag'
p2674
I1
sS'jersey'
p2675
I1
sS'comment'
p2676
I4
sS'wale'
p2677
I3
sS'co'
p2678
I4
sS'tunisia'
p2679
I1
sS'tuesday'
p2680
I5
sS'revamp'
p2681
I1
sS'migrant'
p2682
I3
sS'tsa'
p2683
I1
sS'withdrawn'
p2684
I2
sS'militants\xef\xbf\xbd\xef\xbf\xbd\xef\xbf\xbd'
p2685
I1
sS'quit'
p2686
I2
sS'ag'
p2687
I1
sS'sara'
p2688
I1
sS'trademark'
p2689
I1
sS'farah'
p2690
I2
sS'darren'
p2691
I1
sS'fingleton'
p2692
I1
sS'compon'
p2693
I1
sS'colleagu'
p2694
I1
sS'treat'
p2695
I2
sS'electr'
p2696
I2
sS'nation\xef\xbf\xbd\xef\xbf\xbd\xef\xbf\xbd'
p2697
I2
sS'mike'
p2698
I5
sS'liverpool'
p2699
I7
sS'aubrey'
p2700
I1
sS'upcom'
p2701
I1
sS'telco'
p2702
I1
sS'presenc'
p2703
I1
sS'njoku'
p2704
I1
sS'netanyahu'
p2705
I4
sS'children\xef\xbf\xbd\xef\xbf\xbd\xef\xbf\xbd'
p2706
I1
sS'bull'
p2707
I3
sS'ador'
p2708
I1
sS'atlanta'
p2709
I1
sS'fellow'
p2710
I1
sS'2017'
p2711
I10
sS'spain'
p2712
I2
sS'scrutini'
p2713
I2
sS'nick'
p2714
I1
sS'novel'
p2715
I1
sS'irregular'
p2716
I1
sS'uber\xce\xbeceo'
p2717
I1
sS'\xef\xbf\xbd\xef\xbf\xbd\xef\xbf\xbdhold'
p2718
I1
sS'will'
p2719
I1
sS'ounc'
p2720
I1
sS'antigua'
p2721
I1
sS'wild'
p2722
I3
sS'richi'
p2723
I1
sS'mutant'
p2724
I1
sS'ripe'
p2725
I1
sS'viru'
p2726
I1
sS'oversea'
p2727
I1
sS'vs'
p2728
I3
sS'substanti'
p2729
I1
sS'arabia'
p2730
I1
sS'millwal'
p2731
I3
sS'revis'
p2732
I1
sS'scienc'
p2733
I1
sS'portray'
p2734
I1
sS'terrorist'
p2735
I1
sS'welcom'
p2736
I1
sS'japanes'
p2737
I1
sS'parti'
p2738
I9
sS'tapper'
p2739
I1
sS'wealthi'
p2740
I1
sS'member'
p2741
I4
sS'matthew'
p2742
I1
sS'speaker'
p2743
I4
sS'largest'
p2744
I6
sS'android'
p2745
I2
sS'inc'
p2746
I11
sS'beast\xef\xbf\xbd\xef\xbf\xbd\xef\xbf\xbd'
p2747
I1
sS'competit'
p2748
I1
sS'prais'
p2749
I1
sS'nokia'
p2750
I2
sS'columbia'
p2751
I1
sS'structur'
p2752
I1
sS'dusk'
p2753
I1
sS'effect'
p2754
I3
sS'beast'
p2755
I2
sS'defibril'
p2756
I1
sS'countri'
p2757
I9
sS'exactli'
p2758
I1
sS'celtic'
p2759
I1
sS'carniv'
p2760
I1
sS'center'
p2761
I2
sS'weapon'
p2762
I4
sS'indonesia'
p2763
I1
sS'well'
p2764
I2
sS'controversi'
p2765
I9
sS'thought'
p2766
I3
sS'premiership'
p2767
I3
sS'parliamentari'
p2768
I1
sS'command'
p2769
I1
sS'english'
p2770
I2
sS'wyn'
p2771
I1
sS'latest'
p2772
I9
sS'taller'
p2773
I1
sS'geert'
p2774
I1
sS'rocket'
p2775
I3
sS'less'
p2776
I1
sS'sofia'
p2777
I1
sS'wagner'
p2778
I1
sS'lockhe'
p2779
I1
sS'gun'
p2780
I1
sS'gwen'
p2781
I1
sS'surpass'
p2782
I3
sS'increasingli'
p2783
I5
sS'tough'
p2784
I2
sS'skill'
p2785
I1
sS'simultan'
p2786
I1
sS'assuag'
p2787
I1
sS'begala'
p2788
I1
sS'web'
p2789
I2
sS'rapid'
p2790
I1
sS'point'
p2791
I9
sS'jare'
p2792
I1
sS'hall'
p2793
I3
sS'sullivan'
p2794
I1
sS'bobsleigh'
p2795
I1
sS'book'
p2796
I1
sS'nato'
p2797
I2
sS'citizen'
p2798
I2
sS'compet'
p2799
I1
sS'crossroad'
p2800
I1
sS'match'
p2801
I11
sS'paywal'
p2802
I1
sS'fate'
p2803
I1
sS'billionair'
p2804
I3
sS'chancellor'
p2805
I1
sS'piec'
p2806
I1
sS'munich'
p2807
I1
sS'cruz'
p2808
I1
sS'five'
p2809
I6
sS'know'
p2810
I3
sS'press'
p2811
I9
sS'realis'
p2812
I1
sS'judiciari'
p2813
I1
sS'loss'
p2814
I5
sS'dubai'
p2815
I6
sS'motorola'
p2816
I1
sS'\xef\xbf\xbd\xef\xbf\xbd'
p2817
I2
sS'like'
p2818
I8
sS'success'
p2819
I2
sS'header'
p2820
I1
sS'stevenson'
p2821
I1
sS'necessari'
p2822
I1
sS'lose'
p2823
I5
sS'chick'
p2824
I1
sS'crisi'
p2825
I1
sS'heel'
p2826
I1
sS'shed'
p2827
I1
sS'magnat'
p2828
I1
sS'twitter'
p2829
I2
sS'scottish'
p2830
I1
sS'hail'
p2831
I2
sS'driver\xef\xbf\xbd\xef\xbf\xbd\xef\xbf\xbdaft'
p2832
I1
sS'contin'
p2833
I1
sS'export'
p2834
I1
sS'000m'
p2835
I2
sS'home'
p2836
I6
sS'transport'
p2837
I2
sS'guid'
p2838
I2
sS'competitor'
p2839
I1
sS'feder'
p2840
I6
sS'lead'
p2841
I11
sS'leak'
p2842
I4
sS'avoid'
p2843
I1
sS'mcnulti'
p2844
I1
sS'brennan'
p2845
I1
sS'leas'
p2846
I1
sS'account\xef\xbf\xbd\xef\xbf\xbd\xef\xbf\xbd'
p2847
I1
sS'leav'
p2848
I4
sS'chainz'
p2849
I1
sS'leader'
p2850
I18
sS'regain'
p2851
I1
sS'encourag'
p2852
I2
sS'investig'
p2853
I17
sS'adversari'
p2854
I1
sS'paper'
p2855
I1
sS'host'
p2856
I5
sS'offset'
p2857
I1
sS'instinct'
p2858
I1
sS'pietersen'
p2859
I1
sS'refuge'
p2860
I1
sS'stage'
p2861
I7
sS'ranieri'
p2862
I8
sS'actual'
p2863
I1
sS'justic'
p2864
I4
sS'documentari'
p2865
I3
sS'blockbust'
p2866
I1
sS'disabl'
p2867
I2
sS'conway'
p2868
I1
sS'washington'
p2869
I7
sS'automat'
p2870
I2
sS'referendum'
p2871
I1
sS'assess'
p2872
I1
sS'guard'
p2873
I1
sS'champ'
p2874
I1
sS'mikey'
p2875
I1
sS'ugo'
p2876
I1
sS'mere'
p2877
I1
sS'leverag'
p2878
I1
sS'sander'
p2879
I2
sS'van'
p2880
I1
sS'pictur'
p2881
I7
sS'transfer'
p2882
I1
sS'kislyak'
p2883
I1
sS'bump'
p2884
I1
sS'trigger'
p2885
I2
sS'biggest'
p2886
I5
sS'nielsen'
p2887
I1
sS'gut'
p2888
I1
sS'flynn'
p2889
I8
sS'function'
p2890
I2
sS'buy'
p2891
I2
sS'north'
p2892
I7
sS'brand'
p2893
I2
sS'alexi'
p2894
I1
sS'president\xef\xbf\xbd\xef\xbf\xbd\xef\xbf\xbd'
p2895
I2
sS'larger'
p2896
I1
sS'assail'
p2897
I1
sS'kraft'
p2898
I1
sS'hd'
p2899
I1
sS'count'
p2900
I1
sS'made'
p2901
I10
sS'whether'
p2902
I3
sS'injur'
p2903
I2
sS'j'
I1
sS'troubl'
p2904
I2
sS'retool'
p2905
I1
sS'record'
p2906
I3
sS'belov'
p2907
I2
sS'limit'
p2908
I4
sS'otherwis'
p2909
I1
sS'problem'
p2910
I4
sS'pm'
p2911
I1
sS'trafford'
p2912
I1
sS'display'
p2913
I2
sS'anthoni'
p2914
I1
sS'caretak'
p2915
I1
sS'twist'
p2916
I1
sS'novemb'
p2917
I1
sS'rightli'
p2918
I1
sS'pip'
p2919
I1
sS'penni'
p2920
I1
sS'happen'
p2921
I3
sS'probabl'
p2922
I1
sS'pussycat'
p2923
I1
sS'diplomat'
p2924
I3
sS'47'
p2925
I1
sS'44'
p2926
I2
sS'45'
p2927
I1
sS'percent'
p2928
I2
sS'40'
p2929
I2
sS'detain'
p2930
I1
sS'other'
p2931
I3
sS'deadli'
p2932
I1
sS'album'
p2933
I1
sS'repeat'
p2934
I1
sS'star'
p2935
I6
sS'monday'
p2936
I11
sS'liter'
p2937
I1
sS'stay'
p2938
I5
sS'nintendo'
p2939
I5
sS'repeal'
p2940
I5
sS'basketbal'
p2941
I3
sS'appoint'
p2942
I2
sS'experienc'
p2943
I1
sS'samsung'
p2944
I3
sS'reliabl'
p2945
I2
sS'rule'
p2946
I4
sS'portion'
p2947
I1
sS'emerg'
p2948
I2
sS'decemb'
p2949
I1
sS'frankfurt'
p2950
I1
sS'defend'
p2951
I2
ssS'_mapping'
p2952
(dp2953
g18
I2930
sg19
I357
sg20
I301
sg21
I961
sg22
I2120
sg23
I2191
sg24
I2667
sg25
I1149
sg26
I220
sg27
I1759
sg28
I1480
sg29
I483
sg30
I2873
sg31
I2871
sg32
I2469
sg33
I2837
sg34
I1666
sg35
I2608
sg36
I2447
sg37
I1102
sg38
I1689
sg39
I2672
sg40
I534
sg41
I190
sg42
I1423
sg43
I1231
sg44
I1324
sg45
I1208
sg46
I1417
sg47
I1649
sg48
I2587
sg49
I632
sg50
I1706
sg51
I904
sg52
I2255
sg53
I138
sg54
I392
sg55
I2522
sg56
I10
sg57
I2335
sg58
I2526
sg59
I2586
sg60
I2257
sg61
I2818
sg62
I2716
sg63
I753
sg64
I2838
sg65
I1449
sg66
I143
sg67
I226
sg68
I806
sg69
I408
sg70
I431
sS'n'
I1623
sg71
I78
sg72
I1079
sg73
I700
sg74
I1593
sg75
I578
sg76
I1863
sg77
I1882
sg78
I2808
sg79
I1764
sg80
I203
sg81
I1557
sg82
I2112
sg83
I2419
sg84
I170
sg85
I2249
sg86
I273
sg87
I4
sg88
I2467
sg89
I91
sg90
I2512
sg91
I1120
sg92
I1917
sg93
I2225
sg94
I2403
sg95
I409
sg96
I1154
sg97
I686
sg98
I2854
sg99
I2618
sg100
I837
sg101
I2817
sg102
I1967
sg103
I847
sg104
I1536
sg105
I513
sg106
I1311
sg107
I586
sg108
I1713
sg109
I2776
sg110
I914
sg111
I1983
sg112
I1126
sg113
I248
sg114
I2239
sg115
I2492
sg116
I1740
sg117
I108
sg118
I44
sg119
I2862
sg120
I2464
sg121
I1758
sg122
I963
sg123
I2502
sg124
I1356
sg125
I2248
sg126
I371
sg127
I595
sg128
I1971
sg129
I2160
sg130
I468
sg131
I16
sg132
I809
sg133
I1026
sg134
I645
sg135
I1692
sg136
I235
sg137
I314
sg138
I2420
sg139
I119
sg140
I1786
sg141
I1305
sg142
I2529
sg143
I1096
sg144
I1227
sg145
I308
sg146
I1132
sg147
I703
sg148
I1347
sg149
I387
sg150
I868
sg151
I871
sg152
I1816
sg153
I2926
sg154
I19
sg155
I2081
sg156
I1328
sg157
I1634
sg158
I1766
sg159
I596
sg160
I862
sg161
I353
sg162
I764
sg163
I2933
sg164
I716
sg165
I470
sg166
I2928
sg167
I853
sg168
I1591
sg169
I980
sg170
I915
sg171
I452
sg172
I545
sg173
I2744
sg174
I1564
sg175
I376
sg176
I761
sg177
I80
sg178
I1086
sg179
I1553
sg180
I547
sg181
I263
sg182
I1841
sg183
I1862
sg184
I425
sg185
I154
sg186
I2855
sg187
I2530
sg188
I2435
sg189
I249
sg190
I2360
sg191
I2826
sg192
I51
sg193
I861
sg194
I1670
sg195
I99
sg196
I801
sg197
I854
sg198
I2040
sg199
I486
sg200
I2544
sg201
I2490
sg202
I1775
sg203
I2564
sg204
I2448
sg205
I1878
sg206
I115
sg207
I2316
sg208
I2660
sg209
I291
sg210
I1169
sg211
I349
sg212
I168
sg213
I1213
sg214
I288
sg215
I845
sg216
I2497
sg217
I2131
sg218
I564
sg219
I1035
sg220
I1987
sg221
I151
sg222
I1116
sg223
I822
sg224
I1041
sg225
I118
sg226
I285
sg227
I1373
sg228
I1999
sg229
I1926
sg230
I2898
sg231
I1903
sg232
I2212
sg233
I2018
sg234
I1601
sg235
I57
sg236
I2353
sg237
I1963
sg238
I2890
sg239
I2033
sg240
I750
sg241
I2147
sg242
I2563
sg243
I92
sg244
I1572
sg245
I2354
sg246
I2509
sg247
I1111
sg248
I1861
sg249
I757
sg250
I2674
sg251
I623
sg252
I2265
sg253
I2211
sg254
I1450
sg255
I161
sg256
I2706
sg257
I1848
sg258
I718
sg259
I2598
sg260
I1525
sg261
I1453
sg262
I2765
sg263
I522
sg264
I462
sg265
I2644
sg266
I685
sg267
I1368
sg268
I2513
sg269
I2456
sg270
I1410
sg271
I1748
sg272
I2205
sg273
I2091
sg274
I630
sg275
I695
sg276
I1293
sg277
I467
sg278
I941
sg279
I189
sg280
I1103
sg281
I2885
sg282
I2279
sg283
I1153
sg284
I500
sg285
I2583
sg286
I1039
sg287
I1488
sg288
I2794
sg289
I167
sg290
I1949
sg291
I635
sg292
I2813
sg293
I194
sg294
I570
sg295
I2632
sg296
I2228
sg297
I657
sg298
I1730
sg299
I2937
sg300
I668
sg301
I1072
sg302
I2682
sg303
I1973
sg304
I1254
sg305
I1880
sg306
I1616
sg307
I1235
sg308
I216
sg309
I2774
sg310
I1411
sg311
I2274
sg312
I2423
sg313
I2585
sg314
I2773
sg315
I1098
sg316
I1640
sg317
I2003
sg318
I132
sg319
I1241
sg320
I659
sg321
I2453
sg322
I1049
sg12
I0
sg323
I2096
sg324
I621
sg325
I1824
sg326
I276
sg327
I2605
sg328
I1262
sg329
I1549
sg330
I432
sg331
I1219
sg332
I1677
sg333
I287
sg334
I1374
sg335
I479
sg336
I223
sg337
I1742
sg338
I1329
sg339
I2656
sg340
I1921
sg341
I2863
sg342
I2342
sg343
I1734
sg344
I1699
sg345
I2851
sg346
I2545
sg347
I1522
sg348
I1283
sg349
I230
sg350
I852
sg351
I2801
sg352
I343
sg353
I2394
sg354
I691
sg355
I1875
sg356
I103
sg357
I2935
sg358
I2046
sg359
I1266
sg360
I2261
sg361
I1002
sg362
I2654
sg363
I1883
sg364
I1428
sg365
I1592
sg366
I414
sg367
I672
sg368
I879
sg369
I2533
sg370
I680
sg371
I2948
sg372
I952
sg373
I493
sg374
I851
sg375
I2473
sg376
I512
sg377
I1629
sg378
I2141
sg379
I929
sg380
I2911
sg381
I1937
sg382
I1177
sg383
I2466
sg384
I379
sg385
I2812
sg386
I2234
sg387
I1530
sg388
I1612
sg389
I993
sg390
I2647
sg391
I2055
sg392
I1051
sg393
I1078
sg394
I2136
sg395
I2315
sg396
I518
sg397
I597
sg398
I897
sg399
I723
sg400
I2430
sg401
I739
sg402
I1721
sg403
I1246
sg404
I2406
sg405
I1129
sg406
I2237
sg407
I2266
sg408
I2945
sg409
I784
sg410
I2171
sg411
I297
sg412
I2032
sg413
I1934
sg414
I875
sg415
I2121
sg416
I823
sg417
I1145
sg418
I2514
sg419
I2845
sg420
I890
sg421
I957
sg422
I222
sg423
I386
sg424
I987
sg425
I292
sg426
I770
sg427
I2289
sg428
I1659
sg429
I2727
sg430
I163
sg431
I1163
sg432
I174
sg433
I153
sg434
I1988
sg435
I902
sg436
I1936
sg437
I2443
sg438
I1767
sg439
I2010
sg440
I1762
sg441
I1306
sg442
I841
sg443
I1157
sg444
I1387
sg445
I958
sg446
I98
sg447
I1285
sg448
I426
sg449
I1579
sg450
I450
sg451
I2190
sg452
I1461
sg453
I1380
sg454
I1194
sg455
I2331
sg456
I908
sg457
I237
sg458
I1427
sg459
I2369
sg460
I1850
sg461
I661
sg462
I1481
sg463
I2712
sg464
I1027
sg465
I1192
sg466
I582
sg467
I1938
sg468
I2116
sg469
I344
sg470
I2501
sg471
I1717
sg472
I673
sg473
I2806
sg474
I2879
sg475
I2521
sg476
I458
sg477
I1243
sg478
I696
sg479
I1771
sg480
I2321
sg481
I571
sg482
I2220
sg483
I1760
sg484
I1234
sg485
I2143
sg486
I326
sg487
I1172
sg488
I1390
sg489
I1128
sg490
I538
sg491
I264
sg492
I1467
sg493
I2368
sg494
I1788
sg495
I411
sg496
I593
sg497
I1420
sg498
I1602
sg499
I1906
sg500
I954
sg501
I569
sg502
I33
sg503
I319
sg504
I1082
sg505
I2339
sg506
I1769
sg507
I1904
sg508
I1178
sg509
I2481
sg510
I1894
sg511
I1573
sg512
I1404
sg513
I2927
sg514
I332
sg515
I2635
sg516
I2755
sg517
I584
sg518
I882
sg519
I1053
sg520
I502
sg521
I31
sg522
I936
sg523
I2734
sS'k'
I1680
sg524
I2268
sg525
I1538
sg526
I2725
sg527
I155
sg528
I1084
sg529
I2594
sg530
I2582
sg531
I1183
sg532
I1688
sg533
I1790
sg534
I2303
sg535
I1975
sg536
I1214
sg537
I2337
sg538
I516
sg539
I550
sg540
I1728
sg541
I1923
sg542
I2916
sg543
I1158
sg544
I1022
sg545
I2048
sg546
I1341
sg547
I1751
sg548
I2677
sg549
I2402
sg550
I751
sg551
I259
sg552
I397
sg553
I792
sg554
I2129
sg555
I480
sg556
I128
sg557
I2159
sg558
I1982
sg559
I449
sg560
I1599
sg561
I1965
sg562
I812
sg563
I293
sg564
I783
sg565
I1326
sg566
I2330
sg567
I1502
sg568
I2088
sg569
I2014
sg570
I82
sg571
I790
sg572
I988
sg573
I891
sg574
I869
sg575
I2132
sg576
I2523
sg577
I1737
sg578
I1784
sg579
I721
sg580
I2870
sg581
I438
sg582
I2166
sg583
I1603
sg584
I1150
sg585
I2374
sg586
I560
sg587
I1724
sg588
I746
sg589
I1980
sg590
I2101
sg591
I1073
sg592
I602
sg593
I1867
sg594
I1013
sg595
I1381
sg596
I935
sg597
I433
sg598
I2086
sg599
I1872
sg600
I838
sg601
I2917
sg602
I2506
sg603
I684
sg604
I588
sg605
I1847
sg606
I1791
sg607
I84
sg608
I810
sg609
I290
sg610
I1392
sg611
I2111
sg612
I228
sg613
I1838
sg614
I2367
sg615
I2170
sg616
I2319
sg617
I129
sg618
I638
sg619
I1647
sg620
I1236
sg621
I496
sg622
I85
sg623
I616
sg624
I15
sg625
I1113
sg626
I1726
sg627
I2730
sg628
I1673
sg629
I1620
sg630
I626
sg631
I590
sg632
I2
sg633
I946
sg634
I2787
sg635
I1528
sg636
I874
sg637
I1712
sg638
I473
sg639
I2008
sg640
I442
sg641
I2590
sg642
I1081
sg643
I998
sg644
I1355
sg645
I120
sg646
I1308
sg647
I2697
sg648
I737
sg649
I1958
sg650
I2364
sg651
I25
sg652
I752
sg653
I804
sg654
I2185
sg655
I2382
sg656
I1105
sg657
I1303
sg658
I2313
sg659
I2409
sg660
I2172
sg661
I2488
sg662
I280
sg663
I1796
sg664
I1201
sg665
I1554
sg666
I2943
sg667
I90
sg668
I583
sg669
I2262
sg670
I1560
sg671
I2912
sg672
I1667
sg673
I2874
sg674
I267
sg675
I885
sg676
I2942
sg677
I872
sg678
I402
sg679
I2222
sg680
I2880
sg681
I2541
sg682
I2294
sg683
I2713
sg684
I2060
sg685
I794
sg686
I1827
sg687
I983
sg688
I2551
sg689
I1284
sg690
I553
sg691
I2842
sg692
I2230
sg693
I816
sg694
I2347
sg695
I606
sg696
I2371
sg697
I2636
sg698
I2687
sg699
I1618
sg700
I649
sg701
I2601
sg702
I436
sg703
I211
sg704
I1534
sg705
I2379
sg706
I2432
sg707
I1986
sg708
I81
sg709
I1893
sg710
I2437
sg711
I2866
sg712
I1931
sg713
I2410
sg714
I318
sg715
I1426
sg716
I1064
sg717
I1833
sg718
I1351
sg719
I1352
sg720
I2478
sg721
I548
sg722
I1929
sg723
I2508
sg724
I2696
sg725
I2109
sg726
I800
sg727
I1220
sg728
I385
sg729
I2016
sg730
I2736
sg731
I2735
sg732
I519
sg733
I2139
sg734
I1281
sg735
I64
sg736
I2557
sg737
I1085
sg738
I1822
sg739
I646
sg740
I1152
sg741
I531
sg742
I466
sg743
I2361
sg744
I1913
sg745
I1030
sg746
I1255
sg747
I591
sg748
I1173
sg749
I1679
sg750
I1100
sg751
I2843
sg752
I1388
sg753
I1261
sg754
I1385
sg755
I535
sg756
I1814
sg757
I2503
sg758
I760
sg759
I631
sg760
I1476
sg761
I909
sg762
I175
sg763
I13
sg764
I1093
sg765
I1065
sg766
I833
sg767
I834
sg768
I2809
sg769
I40
sg770
I755
sg771
I1628
sg772
I575
sg773
I2176
sg774
I2024
sg775
I1499
sg776
I1274
sg777
I1834
sg778
I2204
sg779
I331
sg780
I2397
sg781
I2655
sg782
I1747
sg783
I1598
sg784
I1654
sg785
I2648
sg786
I2061
sg787
I165
sg788
I599
sg789
I2308
sg790
I524
sg791
I394
sg792
I7
sg793
I2244
sg794
I1298
sg795
I2307
sg796
I540
sg797
I2416
sg798
I2174
sg799
I32
sg800
I1470
sg801
I2005
sg802
I117
sg803
I101
sg804
I2440
sg805
I601
sg806
I2936
sg807
I419
sg808
I1631
sg809
I734
sg810
I2671
sg811
I2072
sg812
I829
sg813
I2931
sg814
I542
sg815
I1765
sg816
I912
sg817
I2023
sg818
I2753
sg819
I1781
sg820
I1147
sg821
I2496
sg822
I2090
sg823
I1399
sg824
I2717
sg825
I187
sg826
I1843
sg827
I113
sg828
I294
sg829
I1651
sg830
I1071
sg831
I2670
sg832
I2868
sg833
I97
sg834
I156
sg835
I2499
sg836
I928
sg837
I2063
sg838
I2291
sg839
I1993
sg840
I2414
sg841
I1413
sg842
I2345
sg843
I991
sg844
I2304
sg845
I2251
sg846
I982
sg847
I83
sg848
I2803
sg849
I1165
sg850
I2642
sg851
I1992
sg852
I1330
sg853
I1131
sg854
I715
sg855
I320
sg856
I900
sg857
I652
sg858
I741
sg859
I2602
sg860
I1037
sg861
I529
sg862
I1922
sg863
I1636
sg864
I937
sg865
I2814
sg866
I1524
sg867
I622
sg868
I2690
sg869
I172
sg870
I1318
sg871
I637
sg872
I428
sg873
I334
sg874
I2357
sg875
I305
sg876
I1008
sg877
I139
sg878
I2219
sg879
I2421
sg880
I306
sg881
I2893
sg882
I2700
sg883
I1007
sg884
I401
sg885
I1581
sg886
I2087
sg887
I2130
sg888
I1853
sg889
I333
sg890
I1369
sg891
I406
sg892
I298
sg893
I2235
sg894
I1643
sg895
I644
sg896
I748
sg897
I1019
sg898
I1389
sg899
I1446
sg900
I169
sg901
I2752
sg902
I2451
sg903
I3
sg904
I2373
sg905
I2515
sg906
I2683
sg907
I2438
sg908
I1108
sg909
I384
sg910
I1370
sg911
I614
sg912
I341
sg913
I202
sg914
I2878
sg915
I2150
sg916
I1242
sg917
I1715
sg918
I112
sg919
I2311
sg920
I2293
sg921
I499
sg922
I2056
sg923
I498
sg924
I260
sg925
I559
sg926
I1048
sg927
I1942
sg928
I70
sg929
I2947
sg930
I2392
sg931
I2547
sg932
I2741
sg933
I1704
sg934
I135
sg935
I2169
sg936
I2709
sg937
I238
sg938
I2875
sg939
I2691
sg940
I313
sg941
I2167
sg942
I1034
sg943
I552
sg944
I253
sg945
I2433
sg946
I2013
sg947
I424
sg948
I1130
sg949
I581
sg950
I1436
sg951
I2679
sg952
I2555
sg953
I1265
sg954
I1674
sg955
I193
sg956
I1256
sg957
I1080
sg958
I1733
sg959
I791
sg960
I1711
sg961
I390
sg962
I289
sg963
I1063
sg964
I2047
sg965
I2203
sg966
I233
sg967
I1288
sg968
I2124
sg969
I141
sg970
I282
sg971
I1101
sg972
I2861
sg973
I1918
sg974
I940
sg975
I2216
sg976
I683
sg977
I2231
sg978
I805
sg979
I1077
sg980
I2390
sg981
I1566
sg982
I195
sg983
I1463
sg984
I2703
sg985
I1957
sg986
I418
sg987
I1258
sg988
I243
sg989
I435
sg990
I1180
sg991
I1245
sg992
I1401
sg993
I2074
sg994
I1193
sg995
I2844
sg996
I2540
sg997
I2011
sg998
I1325
sg999
I911
sg1000
I1750
sg1001
I689
sg1002
I2004
sg1003
I1184
sg1004
I1379
sg1005
I2739
sg1006
I269
sg1007
I2693
sg1008
I177
sg1009
I1854
sg1010
I506
sg1011
I1782
sg1012
I1054
sg1013
I1465
sg1014
I1895
sg1015
I903
sg1016
I335
sg1017
I802
sg1018
I1033
sg1019
I2940
sg1020
I2641
sg1021
I1829
sg1022
I2728
sg1023
I1307
sg1024
I2089
sg1025
I2770
sg1026
I546
sg1027
I184
sg1028
I1186
sg1029
I1776
sg1030
I1321
sg1031
I399
sg1032
I1104
sg1033
I2949
sg1034
I2686
sg1035
I1507
sg1036
I2757
sg1037
I1025
sg1038
I2045
sg1039
I378
sg1040
I1586
sg1041
I850
sg1042
I1282
sg1043
I1961
sg1044
I50
sg1045
I1842
sg1046
I2768
sg1047
I2702
sg1048
I781
sg1049
I2415
sg1050
I2746
sg1051
I369
sg1052
I53
sg1053
I1296
sg1054
I2341
sg1055
I2616
sg1056
I198
sg1057
I1009
sg1058
I478
sg1059
I2853
sg1060
I1337
sg1061
I2480
sg1062
I147
sg1063
I2267
sg1064
I2323
sg1065
I2848
sg1066
I1442
sg1067
I66
sg1068
I1703
sg1069
I215
sg1070
I523
sg1071
I28
sg1072
I1188
sg1073
I2179
sg1074
I208
sg1075
I1840
sg1076
I1753
sg1077
I2065
sg1078
I732
sS'2'
I2079
sg1079
I1977
sg1080
I26
sg1081
I1018
sg1082
I144
sg1083
I270
sg1084
I2245
sg1085
I1014
sg1086
I465
sg1087
I1197
sg1088
I1902
sg1089
I2938
sg1090
I1976
sg1091
I592
sg1092
I731
sg1093
I2436
sg1094
I651
sg1095
I2344
sg1096
I1359
sg1097
I1215
sg1098
I2186
sg1099
I895
sg1100
I585
sS'r'
I367
sg1101
I1798
sg1102
I362
sg1103
I1087
sg1104
I275
sg1105
I863
sg1106
I1806
sg1107
I247
sg1108
I2816
sg1109
I1943
sg1110
I1811
sg1111
I973
sg1112
I451
sg1113
I899
sg1114
I2749
sg1115
I96
sg1116
I398
sg1117
I948
sg1118
I2669
sg1119
I2745
sg1120
I1844
sg1121
I2324
sg1122
I1299
sg1123
I2584
sg1124
I566
sg1125
I1504
sg1126
I1876
sg1127
I2232
sg1128
I56
sg1129
I102
sg1130
I2155
sg1131
I1276
sg1132
I1513
sg1133
I544
sg1134
I1687
sg1135
I2532
sg1136
I1694
sg1137
I1873
sg1138
I2163
sg1139
I2633
sg1140
I2411
sg1141
I1083
sg1142
I2790
sg1143
I1701
sg1144
I185
sg1145
I1837
sg1146
I234
sg1147
I1345
sg1148
I1657
sg1149
I818
sg1150
I1741
sg1151
I43
sg1152
I2148
sg1153
I1804
sg1154
I140
sg1155
I2476
sg1156
I933
sg1157
I192
sg1158
I1400
sg1159
I2043
sg1160
I2710
sg1161
I1042
sg1162
I2699
sg1163
I733
sg1164
I209
sg1165
I504
sg1166
I2365
sg1167
I1429
sS'3'
I1335
sg1168
I2115
sg1169
I2820
sg1170
I2649
sg1171
I1398
sg1172
I322
sg1173
I359
sg1174
I136
sg1175
I2019
sg1176
I2593
sg1177
I2604
sg1178
I576
sg1179
I608
sg1180
I2164
sg1181
I627
sg1182
I2950
sg1183
I6
sg1184
I258
sg1185
I2747
sg1186
I1226
sg1187
I164
sg1188
I2223
sg1189
I615
sg1190
I1835
sg1191
I1588
sg1192
I2491
sg1193
I2078
sg1194
I2393
sg1195
I356
sg1196
I2537
sg1197
I1799
sg1198
I778
sg1199
I1749
sg1200
I1662
sg1201
I2067
sg1202
I740
sg1203
I2852
sg1204
I351
sg1205
I1462
sg1206
I422
sg1207
I2396
sg1208
I1828
sg1209
I200
sg1210
I1076
sg1211
I1669
sg1212
I1919
sg1213
I619
sg1214
I2785
sg1215
I122
sg1216
I2889
sg1217
I1535
sg1218
I2634
sg1219
I437
sg1220
I2206
sg1221
I656
sg1222
I1230
sg1223
I231
sg1224
I475
sg1225
I1244
sg1226
I2180
sg1227
I2306
sg1228
I1825
sg1229
I2154
sg1230
I574
sg1231
I1402
sg1232
I2388
sg1233
I133
sg1234
I2095
sg1235
I382
sg1236
I2320
sg1237
I2807
sg1238
I1204
sg1239
I949
sg1240
I2500
sg1241
I1263
sg1242
I476
sg1243
I774
sg1244
I1334
sg1245
I1159
sg1246
I1068
sg1247
I2243
sg1248
I1725
sg1249
I324
sg1250
I2929
sg1251
I1500
sg1252
I337
sg1253
I1526
sg1254
I1143
sg1255
I1959
sg1256
I2434
sg1257
I2000
sg1258
I1290
sg1259
I2441
sg1260
I1773
sg1261
I515
sg1262
I1336
sg1263
I1523
sg1264
I1836
sg1265
I1852
sg1266
I158
sg1267
I2775
sg1268
I708
sg1269
I2485
sg1270
I857
sg1271
I1099
sg1272
I2309
sg1273
I517
sg1274
I2624
sg1275
I205
sg1276
I2698
sg1277
I2791
sg1278
I2800
sg1279
I1382
sg1280
I1865
sg1281
I2064
sg1282
I2737
sg1283
I766
sg1284
I923
sg1285
I1508
sg1286
I2352
sg1287
I346
sg1288
I2625
sg1289
I2038
sg1290
I1738
sg1291
I2758
sg1292
I2025
sg1293
I1088
sg1294
I1000
sg1295
I2258
sg1296
I1327
sg1297
I2083
sg1298
I2772
sg1299
I250
sg1300
I477
sg1301
I2680
sg1302
I71
sg1303
I2310
sg1304
I2117
sg1305
I1396
sg1306
I1418
sg1307
I2146
sg1308
I2922
sg1309
I1229
sg1310
I2548
sg1311
I1501
sg1312
I188
sg1313
I2296
sg1314
I1708
sg1315
I2651
sg1316
I1727
sg1317
I2450
sg1318
I827
sg1319
I338
sg1320
I299
sg1321
I1232
sg1322
I1295
sg1323
I1898
sg1324
I2145
sg1325
I2542
sg1326
I2788
sg1327
I1045
sg1328
I67
sg1329
I855
sg1330
I227
sg1331
I2892
sg1332
I2731
sg1333
I1155
sg1334
I966
sg1335
I2847
sg1336
I400
sg1337
I1433
sg1338
I2705
sg1339
I214
sg1340
I2760
sg1341
I605
sg1342
I2221
sg1343
I415
sg1344
I1344
sg1345
I1270
sg1346
I1533
sg1347
I2659
sg1348
I2505
sg1349
I2684
sg1350
I994
sg1351
I481
sg1352
I2764
sg1353
I2135
sg1354
I380
sg1355
I241
sg1356
I123
sg1357
I1320
sg1358
I663
sg1359
I1395
sg1360
I1794
sg1361
I2688
sg1362
I1548
sg1363
I2181
sg1364
I134
sg1365
I1964
sg1366
I29
sg1367
I1576
sg1368
I2525
sg1369
I1604
sg1370
I667
sg1371
I2629
sg1372
I2276
sg1373
I2417
sg1374
I1887
sg1375
I1884
sg1376
I1375
sg1377
I1110
sg1378
I2621
sg1379
I873
sg1380
I2759
sg1381
I2035
sg1382
I1408
sg1383
I1332
sg1384
I257
sg1385
I2830
sg1386
I1681
sg1387
I613
sg1388
I2349
sg1389
I2902
sg1390
I176
sg1391
I2886
sg1392
I1319
sg1393
I1870
sg1394
I1468
sg1395
I2017
sg1396
I1209
sg1397
I1015
sg1398
I2856
sg1399
I953
sg1400
I423
sg1401
I1323
sg1402
I1486
sg1403
I403
sg1404
I1067
sg1405
I1032
sg1406
I1912
sg1407
I2299
sg1408
I2177
sg1409
I1916
sg1410
I2187
sg1411
I2918
sg1412
I1031
sg1413
I745
sg1414
I2334
sg1415
I1839
sg1416
I2459
sg1417
I860
sg1418
I813
sg1419
I894
sg1420
I100
sg1421
I927
sg1422
I2418
sg1423
I738
sg1424
I1195
sg1425
I537
sg1426
I2282
sg1427
I1074
sg1428
I677
sg1429
I472
sg1430
I1676
sg1431
I568
sg1432
I573
sg1433
I551
sg1434
I2215
sg1435
I2098
sg1436
I2802
sg1437
I1832
sg1438
I54
sg1439
I488
sg1440
I1909
sg1441
I2218
sg1442
I2538
sg1443
I744
sg1444
I1125
sg1445
I2628
sg1446
I2053
sg1447
I2860
sg1448
I1124
sg1449
I1656
sg1450
I2377
sg1451
I1720
sg1452
I1830
sg1453
I934
sg1454
I2895
sg1455
I705
sg1456
I2534
sg1457
I1622
sg1458
I976
sg1459
I1944
sg1460
I1191
sg1461
I628
sg1462
I2531
sg1463
I1954
sg1464
I2209
sg1465
I1349
sg1466
I246
sg1467
I2085
sg1468
I2429
sg1469
I2062
sg1470
I1107
sg1471
I1020
sg1472
I1115
sg1473
I2610
sg1474
I2253
sg1475
I2906
sg1476
I1482
sg1477
I1314
sg1478
I2259
sg1479
I2572
sg1480
I2069
sg1481
I655
sS'5'
I719
sg1482
I2006
sg1483
I2646
sg1484
I728
sg1485
I775
sg1486
I1414
sg1487
I88
sg1488
I1339
sg1489
I2724
sg1490
I2422
sg1491
I283
sg1492
I1440
sg1493
I2762
sg1494
I2711
sg1495
I14
sg1496
I1454
sg1497
I2740
sg1498
I178
sg1499
I1181
sg1500
I2386
sg1501
I842
sg1502
I1406
sg1503
I2543
sg1504
I1095
sS'u'
I497
sg1505
I2026
sg1506
I255
sg1507
I996
sg1508
I372
sg1509
I2821
sg1510
I1473
sg1511
I901
sg1512
I1121
sg1513
I702
sg1514
I1580
sg1515
I1405
sg1516
I2833
sg1517
I1471
sg1518
I35
sg1519
I2619
sg1520
I1866
sg1521
I1122
sg1522
I21
sg1523
I1596
sg1524
I2426
sg1525
I1577
sg1526
I1141
sg1527
I2516
sg1528
I2027
sg1529
I368
sg1530
I2384
sg1531
I191
sg1532
I302
sg1533
I114
sg1534
I229
sg1535
I508
sg1536
I780
sg1537
I913
sg1538
I2407
sg1539
I316
sg1540
I1367
sg1541
I2246
sg1542
I589
sg1543
I303
sg1544
I1940
sg1545
I607
sg1546
I2783
sg1547
I363
sg1548
I2487
sg1549
I2869
sg1550
I840
sg1551
I2128
sg1552
I1133
sg1553
I1331
sg1554
I1378
sg1555
I1475
sg1556
I1135
sg1557
I1519
sg1558
I1472
sg1559
I1857
sg1560
I2653
sg1561
I969
sg1562
I365
sg1563
I1540
sg1564
I2031
sg1565
I1257
sg1566
I848
sg1567
I2285
sg1568
I2208
sg1569
I793
sg1570
I1935
sg1571
I2720
sg1572
I2058
sg1573
I511
sg1574
I454
sg1575
I1972
sg1576
I2317
sg1577
I1216
sg1578
I1930
sg1579
I2836
sg1580
I2577
sg1581
I2328
sg1582
I1630
sg1583
I2763
sg1584
I543
sg1585
I698
sg1586
I920
sg1587
I2302
sg1588
I1489
sg1589
I2351
sg1590
I1360
sg1591
I1514
sg1592
I1608
sg1593
I373
sg1594
I2571
sg1595
I1443
sg1596
I1498
sg1597
I650
sg1598
I1818
sg1599
I1011
sg1600
I999
sg1601
I173
sg1602
I68
sg1603
I653
sg1604
I1156
sg1605
I556
sg1606
I204
sg1607
I2050
sg1608
I17
sg1609
I831
sg1610
I846
sg1611
I2107
sg1612
I587
sg1613
I329
sg1614
I2412
sg1615
I618
sg1616
I1117
sg1617
I1729
sg1618
I777
sg1619
I1705
sg1620
I73
sg1621
I736
sg1622
I1455
sg1623
I1044
sg1624
I2372
sS'6'
I1641
sg1625
I307
sg1626
I2835
sg1627
I18
sg1628
I336
sg1629
I1494
sg1630
I2093
sg1631
I2518
sg1632
I2923
sg1633
I1914
sg1634
I2798
sg1635
I110
sg1636
I533
sg1637
I1474
sg1638
I1490
sg1639
I567
sg1640
I558
sg1641
I1217
sg1642
I27
sg1643
I2168
sg1644
I1574
sg1645
I1464
sg1646
I354
sg1647
I1383
sg1648
I2066
sg1649
I217
sg1650
I89
sg1651
I1752
sg1652
I1267
sg1653
I2462
sg1654
I2140
sg1655
I2796
sg1656
I699
sg1657
I1059
sg1658
I434
sg1659
I1813
sg1660
I968
sg1661
I803
sg1662
I2052
sg1663
I1886
sg1664
I278
sg1665
I2934
sg1666
I2092
sg1667
I75
sg1668
I612
sg1669
I959
sg1670
I1920
sg1671
I196
sg1672
I1542
sg1673
I754
sg1674
I2292
sg1675
I1527
sg1676
I2732
sg1677
I327
sg1678
I2524
sg1679
I323
sg1680
I1619
sg1681
I2761
sg1682
I960
sg1683
I2665
sg1684
I687
sg1685
I2908
sg1686
I1259
sg1687
I530
sg1688
I2214
sg1689
I2527
sg1690
I1200
sg1691
I1743
sg1692
I1668
sg1693
I1300
sg1694
I159
sg1695
I2742
sg1696
I166
sg1697
I892
sg1698
I86
sg1699
I448
sg1700
I1497
sg1701
I1247
sg1702
I2897
sg1703
I79
sg1704
I598
sg1705
I979
sg1706
I2336
sg1707
I1969
sg1708
I2550
sg1709
I674
sg1710
I1005
sg1711
I1541
sg1712
I2182
sg1713
I1233
sg1714
I765
sg1715
I1140
sg1716
I1272
sg1717
I1118
sg1718
I1552
sg1719
I1590
sg1720
I1202
sg1721
I383
sg1722
I726
sg1723
I489
sg1724
I199
sg1725
I457
sg1726
I142
sg1727
I1650
sg1728
I2910
sg1729
I180
sg1730
I2756
sg1731
I49
sg1732
I919
sg1733
I1304
sg1734
I594
sg1735
I955
sg1736
I330
sg1737
I2227
sg1738
I46
sg1739
I776
sg1740
I2566
sg1741
I295
sg1742
I1856
sg1743
I464
sg1744
I2562
sg1745
I2857
sg1746
I710
sg1747
I1978
sg1748
I2549
sg1749
I2178
sg1750
I2692
sg1751
I2881
sg1752
I2504
sg1753
I1354
sg1754
I1529
sg1755
I1543
sg1756
I1962
sg1757
I634
sg1758
I396
sg1759
I2839
sg1760
I76
sg1761
I492
sg1762
I1278
sg1763
I2591
sg1764
I1565
sg1765
I975
sg1766
I2460
sg1767
I611
sg1768
I1772
sg1769
I1755
sg1770
I1024
sg1771
I1606
sS'7'
I1055
sg1772
I2834
sg1773
I1885
sg1774
I8
sg1775
I1953
sg1776
I2780
sg1777
I2288
sg1778
I2142
sg1779
I1185
sg1780
I377
sg1781
I1613
sg1782
I171
sg1783
I1277
sg1784
I47
sg1785
I2198
sg1786
I1407
sg1787
I730
sg1788
I624
sg1789
I1815
sg1790
I505
sg1791
I536
sg1792
I1900
sg1793
I844
sg1794
I864
sg1795
I213
sg1796
I2799
sg1797
I2850
sg1798
I157
sg1799
I648
sg1800
I1855
sg1801
I1985
sg1802
I232
sg1803
I2391
sg1804
I2643
sg1805
I2599
sg1806
I1546
sg1807
I2395
sg1808
I1271
sg1809
I429
sg1810
I1905
sg1811
I30
sg1812
I877
sg1813
I1915
sg1814
I22
sg1815
I1754
sg1816
I2020
sg1817
I1252
sg1818
I2051
sg1819
I2811
sg1820
I1090
sg1821
I856
sg1822
I2408
sg1823
I1779
sg1824
I1928
sg1825
I2404
sg1826
I225
sg1827
I604
sg1828
I795
sg1829
I2241
sg1830
I37
sg1831
I2329
sg1832
I821
sg1833
I1016
sg1834
I1228
sg1835
I95
sg1836
I1483
sg1837
I2338
sg1838
I487
sg1839
I281
sg1840
I2474
sg1841
I1148
sg1842
I149
sg1843
I2194
sg1844
I2797
sg1845
I2578
sg1846
I2247
sg1847
I2475
sg1848
I2284
sg1849
I1460
sg1850
I1520
sg1851
I2650
sg1852
I2944
sg1853
I743
sg1854
I1136
sg1855
I1780
sg1856
I694
sg1857
I1376
sg1858
I38
sg1859
I2269
sg1860
I352
sg1861
I2899
sg1862
I1745
sg1863
I2183
sg1864
I1860
sg1865
I1888
sg1866
I1991
sg1867
I274
sg1868
I1386
sg1869
I1253
sg1870
I664
sg1871
I2068
sg1872
I2442
sg1873
I186
sg1874
I603
sg1875
I126
sg1876
I1412
sg1877
I69
sg1878
I2721
sg1879
I1550
sg1880
I1036
sg1881
I701
sg1882
I2581
sg1883
I2662
sg1884
I1879
sg1885
I880
sg1886
I2607
sg1887
I2588
sg1888
I125
sg1889
I1624
sg1890
I1238
sg1891
I2639
sg1892
I1820
sg1893
I561
sg1894
I2865
sg1895
I1466
sg1896
I2059
sg1897
I1544
sg1898
I212
sg1899
I771
sg1900
I2786
sS'8'
I317
sg1901
I2073
sg1902
I2595
sg1903
I1808
sg1904
I2283
sg1905
I2445
sg1906
I2615
sg1907
I2318
sg1908
I1275
sg1909
I2192
sg1910
I2123
sg1911
I2036
sg1912
I926
sg1913
I2859
sg1914
I2125
sg1915
I2561
sg1916
I843
sg1917
I788
sg1918
I2301
sg1919
I2887
sg1920
I2346
sg1921
I312
sg1922
I1795
sg1923
I2877
sg1924
I501
sg1925
I252
sg1926
I2657
sg1927
I441
sg1928
I364
sg1929
I2193
sg1930
I261
sg1931
I2891
sg1932
I1273
sg1933
I742
sg1934
I1774
sg1935
I1089
sg1936
I421
sg1937
I1106
sg1938
I1264
sg1939
I1240
sg1940
I2668
sg1941
I1146
sg1942
I1644
sg1943
I849
sg1944
I1365
sg1945
I1947
sg1946
I1038
sg1947
I859
sg1948
I2626
sg1949
I484
sg1950
I1858
sg1951
I2558
sg1952
I1697
sg1953
I1695
sg1954
I1868
sg1955
I2733
sg1956
I34
sg1957
I1176
sg1958
I1518
sg1959
I347
sg1960
I1492
sg1961
I2452
sg1962
I1237
sg1963
I808
sg1964
I1970
sg1965
I1684
sg1966
I2110
sg1967
I866
sg1968
I1127
sg1969
I514
sg1970
I1350
sg1971
I181
sg1972
I2925
sg1973
I395
sg1974
I924
sg1975
I2030
sg1976
I1056
sg1977
I676
sg1978
I2105
sg1979
I315
sg1980
I1287
sg1981
I2718
sg1982
I1819
sg1983
I2077
sg1984
I2468
sg1985
I1162
sg1986
I2457
sg1987
I887
sg1988
I758
sg1989
I1046
sg1990
I2126
sg1991
I1891
sg1992
I974
sg1993
I2614
sg1994
I1617
sg1995
I1114
sg1996
I944
sg1997
I2769
sg1998
I1908
sg1999
I579
sg2000
I1224
sg2001
I787
sg2002
I2767
sg2003
I52
sg2004
I1094
sg2005
I1189
sg2006
I2240
sg2007
I886
sg2008
I2201
sg2009
I2272
sg2010
I965
sg2011
I2627
sg2012
I439
sg2013
I2579
sg2014
I1294
sg2015
I1248
sg2016
I1696
sg2017
I1678
sg2018
I633
sg2019
I2568
sg2020
I1746
sg2021
I1924
sg2022
I2666
sg2023
I2748
sg2024
I1510
sg2025
I2676
sg2026
I2589
sg2027
I2941
sg2028
I412
sg2029
I1357
sg2030
I796
sg2031
I722
sS'9'
I1164
sg2032
I1974
sg2033
I2242
sg2034
I1660
sg2035
I2789
sg2036
I1441
sg2037
I1787
sg2038
I2119
sg2039
I697
sg2040
I693
sg2041
I2387
sg2042
I1568
sg2043
I1642
sg2044
I2484
sg2045
I1478
sg2046
I1212
sg2047
I146
sg2048
I995
sg2049
I2743
sg2050
I218
sg2051
I2678
sg2052
I759
sg2053
I921
sg2054
I1735
sg2055
I1109
sg2056
I1531
sg2057
I266
sg2058
I1469
sg2059
I772
sg2060
I1652
sg2061
I206
sg2062
I370
sg2063
I865
sg2064
I150
sg2065
I832
sg2066
I2907
sg2067
I1661
sg2068
I1452
sg2069
I2458
sg2070
I629
sg2071
I688
sg2072
I907
sg2073
I815
sg2074
I539
sg2075
I2828
sg2076
I729
sg2077
I2002
sg2078
I1221
sg2079
I1597
sg2080
I311
sg2081
I1559
sg2082
I1638
sg2083
I1831
sg2084
I495
sg2085
I1280
sg2086
I681
sg2087
I1384
sg2088
I2575
sg2089
I1571
sg2090
I1951
sg2091
I714
sg2092
I1322
sg2093
I1719
sg2094
I678
sg2095
I1493
sg2096
I2149
sg2097
I2510
sg2098
I1846
sg2099
I557
sg2100
I265
sg2101
I1907
sg2102
I2424
sg2103
I943
sg2104
I20
sg2105
I867
sg2106
I1877
sg2107
I1459
sg2108
I36
sg2109
I1021
sg2110
I1763
sg2111
I528
sg2112
I1874
sg2113
I1881
sg2114
I2905
sg2115
I2603
sg2116
I931
sg2117
I355
sg2118
I1438
sg2119
I2482
sg2120
I1517
sg2121
I2560
sg2122
I2298
sg2123
I1366
sg2124
I2358
sg2125
I2486
sg2126
I1179
sg2127
I2673
sg2128
I2376
sg2129
I2138
sg2130
I2189
sg2131
I2044
sg2132
I1614
sg2133
I2137
sg2134
I2333
sg2135
I2738
sg2136
I1646
sg2137
I789
sg2138
I1744
sg2139
I2841
sg2140
I727
sg2141
I749
sg2142
I824
sg2143
I712
sg2144
I271
sg2145
I2156
sg2146
I1222
sg2147
I1732
sg2148
I1430
sg2149
I951
sg2150
I870
sg2151
I617
sg2152
I2708
sg2153
I1675
sg2154
I2080
sg2155
I2264
sg2156
I328
sg2157
I1997
sg2158
I2810
sg2159
I898
sg2160
I48
sg2161
I2127
sg2162
I2305
sg2163
I1665
sg2164
I2165
sg2165
I779
sg2166
I1556
sg2167
I643
sg2168
I2001
sg2169
I340
sg2170
I1952
sg2171
I577
sg2172
I109
sg2173
I404
sg2174
I5
sg2175
I1495
sg2176
I563
sg2177
I1722
sg2178
I2913
sg2179
I2082
sg2180
I11
sg2181
I1317
sg2182
I1437
sg2183
I1672
sg2184
I889
sg2185
I665
sg2186
I2792
sg2187
I1029
sg2188
I1142
sg2189
I1291
sS'v'
I609
sg2190
I106
sg2191
I985
sg2192
I2631
sg2193
I494
sg2194
I1484
sg2195
I2827
sg2196
I2290
sg2197
I1161
sg2198
I1635
sg2199
I482
sg2200
I2270
sg2201
I1269
sg2202
I1435
sg2203
I1521
sg2204
I62
sg2205
I2277
sg2206
I2362
sg2207
I1583
sg2208
I183
sg2209
I1567
sg2210
I2661
sg2211
I455
sg2212
I1979
sg2213
I1333
sg2214
I2378
sg2215
I1315
sg2216
I2355
sg2217
I1995
sg2218
I350
sg2219
I2517
sg2220
I2039
sg2221
I1268
sg2222
I989
sg2223
I2057
sg2224
I1607
sg2225
I1371
sg2226
I94
sg2227
I2356
sg2228
I2707
sg2229
I12
sg2230
I1761
sg2231
I2118
sg2232
I179
sg2233
I1797
sg2234
I1698
sg2235
I1849
sg2236
I207
sg2237
I782
sg2238
I939
sg2239
I509
sg2240
I130
sg2241
I1693
sg2242
I1539
sg2243
I1515
sg2244
I2400
sg2245
I105
sg2246
I2104
sg2247
I1358
sg2248
I2009
sg2249
I1422
sg2250
I525
sg2251
I858
sg2252
I2184
sg2253
I2701
sg2254
I1047
sg2255
I1309
sg2256
I2161
sg2257
I1671
sg2258
I60
sg2259
I1003
sg2260
I2630
sg2261
I725
sg2262
I2151
sg2263
I41
sg2264
I1948
sg2265
I1139
sg2266
I554
sg2267
I2546
sg2268
I2113
sg2269
I2840
sg2270
I2472
sg2271
I2103
sg2272
I304
sg2273
I2939
sg2274
I485
sg2275
I526
sg2276
I2867
sg2277
I2574
sg2278
I1686
sg2279
I2495
sg2280
I2084
sg2281
I1532
sg2282
I1892
sg2283
I1431
sg2284
I2102
sg2285
I2173
sg2286
I239
sg2287
I884
sg2288
I2498
sg2289
I1803
sg2290
I2108
sg2291
I224
sg2292
I682
sg2293
I55
sg2294
I2202
sg2295
I2597
sg2296
I1057
sg2297
I2254
sg2298
I2238
sg2299
I1807
sg2300
I532
sg2301
I358
sg2302
I2348
sg2303
I1509
sg2304
I1802
sg2305
I2029
sg2306
I453
sg2307
I878
sg2308
I2236
sg2309
I1112
sg2310
I1342
sg2311
I1211
sg2312
I692
sg2313
I521
sg2314
I2766
sg2315
I2106
sg2316
I1605
sg2317
I1506
sg2318
I104
sg2319
I503
sg2320
I1562
sg2321
I2471
sg2322
I562
sg2323
I1182
sg2324
I2849
sg2325
I964
sg2326
I2909
sg2327
I107
sg2328
I1621
sg2329
I2300
sg2330
I381
sg2331
I1551
sg2332
I388
sg2333
I2229
sg2334
I1297
sg2335
I1424
sg2336
I1439
sg2337
I1805
sg2338
I1012
sg2339
I2233
sg2340
I1664
sg2341
I1198
sg2342
I1066
sg2343
I310
sg2344
I2559
sg2345
I469
sg2346
I2427
sg2347
I1403
sg2348
I2652
sg2349
I1989
sg2350
I1768
sg2351
I2623
sg2352
I2920
sg2353
I660
sg2354
I1167
sg2355
I906
sg2356
I1292
sg2357
I814
sg2358
I2359
sg2359
I2054
sg2360
I2914
sg2361
I1911
sg2362
I1004
sg2363
I1425
sg2364
I2569
sg2365
I63
sg2366
I2876
sg2367
I1851
sg2368
I1512
sg2369
I2663
sg2370
I1756
sg2371
I1589
sg2372
I1945
sg2373
I977
sg2374
I1097
sg2375
I1932
sg2376
I1043
sg2377
I491
sg2378
I839
sg2379
I39
sg2380
I967
sg2381
I1864
sg2382
I474
sg2383
I2200
sg2384
I1062
sg2385
I2553
sg2386
I1289
sg2387
I1205
sg2388
I1585
sg2389
I145
sg2390
I2157
sg2391
I2465
sg2392
I1561
sg2393
I836
sg2394
I510
sg2395
I1199
sg2396
I2723
sg2397
I2297
sg2398
I148
sg2399
I669
sg2400
I1503
sg2401
I1251
sg2402
I1691
sg2403
I2071
sg2404
I410
sg2405
I1714
sg2406
I2207
sg2407
I1302
sg2408
I1171
sg2409
I2888
sS'1'
I762
sg2410
I2444
sg2411
I930
sg2412
I1582
sg2413
I1409
sg2414
I2539
sg2415
I256
sg2416
I162
sg2417
I2366
sg2418
I1998
sg2419
I1595
sg2420
I2350
sg2421
I182
sg2422
I236
sg2423
I2070
sg2424
I1050
sg2425
I2097
sg2426
I1010
sg2427
I2904
sg2428
I2884
sg2429
I1372
sg2430
I87
sg2431
I244
sg2432
I2640
sg2433
I572
sg2434
I1001
sg2435
I127
sg2436
I1910
sg2437
I1778
sg2438
I277
sg2439
I541
sg2440
I42
sg2441
I2894
sg2442
I2256
sg2443
I2511
sg2444
I2831
sg2445
I2864
sg2446
I2463
sg2447
I2195
sg2448
I111
sg2449
I620
sg2450
I360
sg2451
I1600
sg2452
I610
sg2453
I1456
sg2454
I1310
sg2455
I888
sg2456
I2896
sg2457
I636
sg2458
I1160
sg2459
I1575
sg2460
I1587
sg2461
I2389
sg2462
I2380
sg2463
I93
sg2464
I2858
sg2465
I407
sg2466
I1994
sg2467
I1206
sg2468
I1702
sg2469
I970
sg2470
I201
sg2471
I1393
sg2472
I1981
sg2473
I662
sg2474
I45
sg2475
I666
sg2476
I2196
sg2477
I339
sg2478
I1445
sg2479
I2260
sg2480
I600
sg2481
I1716
sg2482
I1757
sg2483
I2592
sg2484
I2567
sS'g'
I2951
sg2485
I1545
sg2486
I905
sg2487
I707
sg2488
I986
sg2489
I1166
sg2490
I1823
sg2491
I1279
sg2492
I2175
sg2493
I116
sg2494
I1
sg2495
I2576
sg2496
I321
sg2497
I1685
sg2498
I1075
sg2499
I1777
sg2500
I1800
sg2501
I978
sg2502
I675
sg2503
I1609
sg2504
I555
sg2505
I2675
sg2506
I490
sg2507
I1028
sg2508
I1899
sg2509
I1364
sg2510
I520
sg2511
I565
sg2512
I2370
sg2513
I1485
sg2514
I690
sg2515
I2921
sg2516
I2805
sg2517
I507
sg2518
I389
sg2519
I391
sg2520
I2042
sg2521
I2455
sg2522
I2363
sg2523
I2825
sg2524
I1578
sg2525
I2162
sg2526
I1203
sg2527
I1558
sg2528
I947
sg2529
I1625
sg2530
I1447
sg2531
I131
sg2532
I769
sg2533
I1812
sg2534
I2280
sg2535
I2383
sg2536
I2413
sg2537
I756
sg2538
I2049
sg2539
I896
sg2540
I300
sg2541
I2327
sg2542
I1144
sg2543
I922
sg2544
I2037
sg2545
I2596
sg2546
I1444
sg2547
I1611
sg2548
I1479
sg2549
I1946
sg2550
I417
sg2551
I2099
sg2552
I1052
sg2553
I2454
sg2554
I820
sg2555
I1633
sg2556
I210
sg2557
I1927
sg2558
I1316
sg2559
I1950
sg2560
I2685
sg2561
I1091
sg2562
I2609
sg2563
I2152
sg2564
I65
sg2565
I1968
sg2566
I1207
sg2567
I2882
sg2568
I2271
sg2569
I375
sg2570
I2932
sg2571
I997
sg2572
I971
sg2573
I345
sg2574
I932
sg2575
I1210
sg2576
I2781
sg2577
I1061
sg2578
I1301
sg2579
I1960
sg2580
I1683
sg2581
I1731
sg2582
I1648
sg2583
I735
sg2584
I724
sg2585
I1793
sg2586
I1416
sg2587
I197
sg2588
I876
sg2589
I2461
sg2590
I463
sg2591
I1338
sg2592
I1663
sg2593
I639
sg2594
I580
sg2595
I711
sg2596
I2689
sg2597
I471
sg2598
I883
sg2599
I1584
sg2600
I972
sg2601
I2431
sg2602
I2343
sg2603
I2028
sg2604
I2819
sg2605
I2122
sg2606
I2715
sg2607
I1168
sg2608
I640
sg2609
I2778
sg2610
I679
sg2611
I1655
sg2612
I1069
sg2613
I2034
sg2614
I2153
sg2615
I2021
sg2616
I23
sg2617
I443
sg2618
I268
sg2619
I1653
sg2620
I747
sg2621
I1901
sg2622
I309
sg2623
I1134
sS'h'
I1239
sg2624
I1889
sg2625
I1996
sg2626
I2275
sg2627
I1783
sg2628
I2493
sg2629
I1637
sg2630
I2552
sg2631
I152
sg2632
I2519
sg2633
I2094
sg2634
I1434
sg2635
I1419
sg2636
I2946
sg2637
I2822
sg2638
I2658
sg2639
I1925
sg2640
I1249
sg2641
I2158
sg2642
I2007
sg2643
I74
sg2644
I819
sg2645
I1496
sg2646
I1377
sg2647
I2704
sg2648
I430
sg2649
I1361
sg2650
I2784
sg2651
I1421
sg2652
I1821
sg2653
I918
sg2654
I2777
sg2655
I459
sg2656
I286
sg2657
I361
sg2658
I1871
sS'w'
I1933
sg2659
I1313
sg2660
I2075
sg2661
I2134
sg2662
I2332
sg2663
I642
sg2664
I2726
sg2665
I1890
sg2666
I1896
sg2667
I1397
sg2668
I1119
sg2669
I2197
sg2670
I2022
sg2671
I1223
sg2672
I2815
sg2673
I962
sg2674
I2722
sg2675
I1487
sg2676
I245
sg2677
I1138
sg2678
I830
sg2679
I2226
sg2680
I1415
sg2681
I1348
sg2682
I670
sg2683
I2782
sg2684
I160
sg2685
I2714
sg2686
I2322
sg2687
I1451
sg2688
I284
sg2689
I413
sg2690
I717
sg2691
I2114
sg2692
I1785
sg2693
I2611
sg2694
I2832
sg2695
I797
sg2696
I1547
sg2697
I942
sg2698
I456
sg2699
I1801
sg2700
I2638
sg2701
I1432
sg2702
I1956
sg2703
I1626
sg2704
I2520
sg2705
I9
sg2706
I2719
sg2707
I1394
sg2708
I1260
sg2709
I1658
sg2710
I2076
sg2711
I1391
sg2712
I671
sg2713
I2405
sg2714
I2824
sg2715
I1516
sg2716
I2213
sg2717
I2041
sg2718
I785
sg2719
I2804
sg2720
I2606
sg2721
I2751
sg2722
I2573
sg2723
I2754
sg2724
I2565
sg2725
I1700
sg2726
I704
sg2727
I1770
sg2728
I2494
sg2729
I1174
sg2730
I2325
sg2731
I713
sg2732
I811
sg2733
I2795
sg2734
I2771
sg2735
I706
sg2736
I925
sg2737
I1955
sg2738
I1058
sg2739
I242
sg2740
I2645
sg2741
I1594
sg2742
I2012
sg2743
I1869
sg2744
I893
sg2745
I1353
sg2746
I1859
sg2747
I2872
sg2748
I2528
sg2749
I2278
sg2750
I1346
sg2751
I427
sg2752
I1710
sg2753
I1040
sg2754
I709
sg2755
I2449
sg2756
I2210
sg2757
I124
sg2758
I2483
sg2759
I763
sg2760
I2729
sg2761
I240
sg2762
I1250
sg2763
I2326
sg2764
I1312
sg2765
I945
sg2766
I420
sg2767
I768
sg2768
I938
sg2769
I2536
sg2770
I950
sg2771
I1151
sg2772
I393
sg2773
I1537
sg2774
I647
sg2775
I807
sg2776
I440
sg2777
I2883
sg2778
I1817
sg2779
I2375
sg2780
I1897
sg2781
I2446
sg2782
I2314
sg2783
I916
sg2784
I2252
sg2785
I625
sg2786
I219
sg2787
I461
sg2788
I262
sg2789
I2287
sg2790
I2613
sg2791
I445
sg2792
I2401
sg2793
I1491
sg2794
I272
sg2795
I1123
sg2796
I2479
sg2797
I460
sg2798
I2015
sg2799
I2281
sg2800
I72
sg2801
I992
sg2802
I2580
sg2803
I1707
sg2804
I1170
sg2805
I1792
sg2806
I2664
sg2807
I1966
sg2808
I366
sg2809
I1340
sg2810
I1645
sg2811
I24
sg2812
I1569
sg2813
I2829
sg2814
I1060
sg2815
I773
sg2816
I1941
sg2817
I798
sg2818
I121
sg2819
I981
sg2820
I2217
sg2821
I2224
sg2822
I2144
sg2823
I1187
sg2824
I654
sg2825
I348
sg2826
I2915
sg2827
I2398
sg2828
I2637
sg2829
I1190
sg2830
I767
sg2831
I1990
sg2832
I2694
sg2833
I444
sg2834
I2681
sg2835
I720
sg2836
I137
sg2837
I1709
sg2838
I2556
sg2839
I826
sg2840
I825
sg2841
I374
sg2842
I254
sg2843
I817
sg2844
I1610
sg2845
I1723
sg2846
I2385
sg2847
I786
sg2848
I405
sg2849
I2470
sg2850
I59
sg2851
I1718
sg2852
I1690
sg2853
I279
sg2854
I835
sg2855
I2425
sg2856
I58
sg2857
I2695
sg2858
I2399
sg2859
I1845
sg2860
I1006
sg2861
I984
sg2862
I1017
sg2863
I549
sg2864
I251
sg2865
I1739
sg2866
I1448
sg2867
I990
sg2868
I2903
sg2869
I296
sg2870
I2507
sg2871
I1682
sg2872
I2846
sg2873
I1984
sg2874
I2919
sg2875
I2188
sg2876
I1826
sg2877
I1286
sg2878
I2535
sg2879
I1505
sg2880
I2273
sg2881
I1563
sg2882
I2312
sg2883
I2620
sg2884
I2133
sg2885
I342
sg2886
I1477
sg2887
I2779
sg2888
I2793
sg2889
I61
sg2890
I2570
sg2891
I1196
sg2892
I416
sg2893
I881
sg2894
I2340
sg2895
I2617
sg2896
I2263
sg2897
I1218
sg2898
I828
sg2899
I2286
sg2900
I1639
sg2901
I77
sg2902
I325
sg2903
I1092
sS'j'
I2489
sg2904
I1809
sg2905
I1511
sg2906
I447
sg2907
I221
sg2908
I1615
sg2909
I2901
sg2910
I2199
sg2911
I658
sg2912
I1627
sg2913
I1137
sg2914
I1632
sg2915
I1810
sg2916
I1736
sg2917
I1225
sg2918
I2612
sg2919
I1363
sg2920
I2381
sg2921
I1555
sg2922
I527
sg2923
I2439
sg2924
I641
sg2925
I2250
sg2926
I2600
sg2927
I2750
sg2928
I1457
sg2929
I2924
sg2930
I2823
sg2931
I799
sg2932
I2428
sg2933
I2477
sg2934
I910
sg2935
I1570
sg2936
I956
sg2937
I2900
sg2938
I917
sg2939
I2554
sg2940
I1023
sg2941
I1789
sg2942
I1343
sg2943
I2295
sg2944
I1939
sg2945
I446
sg2946
I1070
sg2947
I1175
sg2948
I2100
sg2949
I2622
sg2950
I1458
sg2951
I1362
ssS'_reverse_mapping'
p2954
(lp2955
g12
ag2494
ag632
ag903
ag87
ag2174
ag1183
ag792
ag1774
ag2705
ag56
ag2180
ag2229
ag763
ag1495
ag624
ag131
ag1608
ag1627
ag154
ag2104
ag1522
ag1814
ag2616
ag2811
ag651
ag1080
ag1642
ag1071
ag1366
ag1811
ag521
ag799
ag502
ag1956
ag1518
ag2108
ag1830
ag1858
ag2379
ag769
ag2263
ag2440
ag1151
ag118
ag2474
ag1738
ag1784
ag2160
ag1731
ag1044
ag192
ag2003
ag1052
ag1438
ag2293
ag1128
ag235
ag2856
ag2850
ag2258
ag2889
ag2204
ag2365
ag735
ag2564
ag1067
ag1328
ag1602
ag1877
ag928
ag1302
ag2800
ag1620
ag2643
ag1667
ag1760
ag2901
ag71
ag1703
ag177
ag708
ag570
ag847
ag607
ag622
ag1698
ag2430
ag1487
ag1650
ag667
ag89
ag243
ag2463
ag2226
ag1835
ag1115
ag833
ag446
ag195
ag1420
ag803
ag1129
ag356
ag2318
ag2245
ag2190
ag2327
ag117
ag2172
ag1635
ag2448
ag918
ag827
ag1533
ag206
ag2493
ag802
ag225
ag139
ag645
ag2818
ag1215
ag1356
ag2757
ag1888
ag1875
ag2435
ag556
ag617
ag2240
ag2531
ag318
ag1233
ag1364
ag934
ag1174
ag2836
ag53
ag877
ag1154
ag969
ag1726
ag66
ag1082
ag2389
ag2047
ag1062
ag2398
ag1842
ag2064
ag221
ag2631
ag433
ag185
ag527
ag834
ag1798
ag1266
ag1694
ag2684
ag255
ag2416
ag430
ag1187
ag787
ag1696
ag289
ag212
ag900
ag84
ag1782
ag869
ag1601
ag432
ag762
ag1390
ag1008
ag1498
ag2232
ag1729
ag1971
ag2421
ag2208
ag1027
ag1144
ag1873
ag825
ag1312
ag279
ag41
ag1531
ag1157
ag955
ag293
ag982
ag1671
ag2587
ag1056
ag1724
ag1209
ag2470
ag913
ag80
ag1606
ag1275
ag2061
ag2236
ag1074
ag1164
ag2556
ag703
ag1898
ag1795
ag1339
ag1069
ag308
ag1649
ag2050
ag2786
ag26
ag2907
ag422
ag336
ag2291
ag1826
ag67
ag1330
ag612
ag1534
ag349
ag1223
ag1802
ag966
ag1146
ag136
ag2422
ag457
ag937
ag2286
ag2761
ag1355
ag2739
ag988
ag2431
ag2676
ag1466
ag1107
ag113
ag189
ag1299
ag2864
ag1925
ag944
ag2842
ag1506
ag2415
ag1384
ag1184
ag551
ag924
ag1930
ag2788
ag181
ag491
ag2100
ag2057
ag674
ag2618
ag1006
ag1083
ag2144
ag2794
ag86
ag1867
ag1104
ag326
ag2438
ag1664
ag2853
ag662
ag1839
ag970
ag1491
ag2688
ag226
ag2656
ag333
ag214
ag962
ag609
ag209
ag425
ag563
ag828
ag1741
ag2869
ag411
ag892
ag1320
ag2540
ag20
ag1532
ag1543
ag2272
ag875
ag880
ag1625
ag145
ag2622
ag2343
ag2080
ag1921
ag940
ag137
ag1979
ag1539
aS'8'
ag714
ag503
ag855
ag2496
ag1172
ag1679
ag1249
ag2902
ag486
ag1677
ag2156
ag1613
ag1736
ag779
ag514
ag889
ag873
ag1016
ag1628
ag1252
ag1319
ag2477
ag2169
ag912
ag2885
ag352
ag469
ag2573
ag1287
ag1959
ag2825
ag211
ag2218
ag1204
ag1860
ag161
ag1646
ag2117
ag1195
ag19
ag2301
ag1173
ag2450
ag2657
ag1102
ag1547
ag1928
ag1562
ag2808
aS'r'
ag1529
ag1051
ag2062
ag126
ag1508
ag1593
ag2841
ag2569
ag175
ag1780
ag1039
ag384
ag1354
ag2330
ag1235
ag1721
ag909
ag728
ag423
ag149
ag2332
ag2518
ag961
ag2519
ag54
ag2772
ag791
ag1973
ag1758
ag552
ag1116
ag1031
ag1336
ag884
ag678
ag1403
ag2173
ag2848
ag891
ag2465
ag69
ag95
ag2404
ag495
ag2028
ag2689
ag366
ag1343
ag2892
ag2550
ag986
ag807
ag2766
ag1936
ag1206
ag1400
ag947
ag184
ag448
ag2751
ag872
ag1809
ag2648
ag70
ag330
ag597
ag1658
ag989
ag702
ag1219
ag581
ag2012
ag2776
ag1927
ag640
ag2617
ag2833
ag2791
ag2945
ag2906
ag1699
ag559
ag450
ag1112
ag171
ag2306
ag1574
ag2211
ag2698
ag1725
ag476
ag2655
ag2797
ag2787
ag264
ag2590
ag1743
ag1086
ag742
ag277
ag130
ag2345
ag165
ag2597
ag1429
ag638
ag2382
ag1224
ag1242
ag1300
ag1058
ag335
ag555
ag1351
ag2199
ag29
ag1949
ag2274
ag199
ag1838
ag1439
ag1723
ag2506
ag2377
ag1761
ag373
ag2193
ag2084
ag621
aS'u'
ag923
ag921
ag284
ag1924
ag520
ag2319
ag1165
ag1790
ag1010
ag2517
ag1535
ag2239
ag2394
ag1573
ag376
ag105
ag1969
ag1261
ag538
ag1273
ag396
ag732
ag2510
ag2313
ag263
ag1070
ag790
ag2250
ag2275
ag2922
ag2111
ag861
ag1687
ag741
ag2300
ag1636
ag40
ag755
ag1791
ag1425
ag490
ag2074
ag796
ag2439
ag814
ag1584
ag1133
ag172
ag1026
ag180
ag721
ag2863
ag539
ag1433
ag943
ag690
ag2266
ag2504
ag1605
ag2099
ag1640
ag925
ag586
ag1893
ag2322
ag2176
ag218
ag2511
ag1124
ag1639
ag1431
ag501
ag294
ag481
ag2433
ag1432
ag1230
ag772
ag1178
ag2171
ag75
ag1999
ag2594
ag949
ag466
ag668
ag517
ag1100
ag107
ag1612
ag604
ag1542
ag631
ag747
ag1091
ag496
ag1734
ag127
ag159
ag397
ag1704
ag788
ag2480
ag805
ag592
ag1874
ag1827
ag1341
ag695
ag1545
ag1179
aS'v'
ag2452
ag1767
ag1668
ag1387
ag911
ag1189
ag623
ag2151
ag1615
ag1213
ag2449
ag324
ag867
ag251
ag1788
ag2785
ag630
ag1181
ag1461
ag2070
ag274
ag759
ag49
ag2018
ag1757
ag291
ag2457
ag871
ag618
ag2593
ag2608
ag2924
ag2663
ag2167
ag895
ag134
ag739
ag2774
ag1799
ag700
ag1597
ag1094
ag857
ag1603
ag2824
ag1481
ag1221
ag297
ag2911
ag320
ag2353
ag461
ag2473
ag1358
ag1870
ag2185
ag2475
ag1370
ag300
ag2399
ag2682
ag2712
ag367
ag472
ag1709
ag2502
ag1977
ag1428
ag2094
ag2610
ag370
ag2086
ag2292
ag976
ag603
ag266
ag97
ag1684
ag2071
ag1001
ag2514
ag354
ag2312
ag2040
ag1856
ag275
ag478
ag2039
ag1585
ag1656
ag73
ag1881
ag1513
ag147
ag2726
ag1455
ag2735
ag2487
ag1268
ag2754
ag1746
ag2595
ag2143
ag2731
ag2091
ag854
ag164
ag2690
ag258
aS'5'
ag2835
ag579
ag2031
ag399
ag2584
ag2261
ag1722
ag2140
ag1484
ag2076
ag1787
ag1092
ag1078
ag1163
ag809
ag2583
ag1621
ag648
ag1423
ag401
ag1202
ag858
ag1933
ag1853
ag1443
ag1413
ag588
ag2620
ag896
ag2141
ag240
ag550
ag652
ag63
ag1673
ag770
ag2537
ag249
ag1988
ag2052
ag758
ag176
aS'1'
ag2759
ag162
ag1714
ag1283
ag2830
ag2767
ag2532
ag426
ag1899
ag2059
ag2815
ag1243
ag1485
ag1739
ag1618
ag1198
ag2165
ag1536
ag1048
ag2237
ag564
ag409
ag2718
ag2847
ag2001
ag1917
ag2137
ag571
ag959
ag553
ag1569
ag685
ag1828
ag2030
ag2695
ag2817
ag2931
ag726
ag196
ag1017
ag1661
ag653
ag978
ag68
ag2775
ag1963
ag132
ag608
ag2732
ag562
ag1418
ag2357
ag2073
ag693
ag2843
ag1149
ag2644
ag2554
ag1832
ag223
ag416
ag2142
ag2840
ag2839
ag1318
ag2898
ag812
ag2678
ag1609
ag2065
ag766
ag767
ag2854
ag2393
ag100
ag600
ag2378
ag1550
ag442
ag1501
ag1916
ag1793
ag215
ag1610
ag103
ag1566
ag1943
ag1041
ag374
ag350
ag167
ag197
ag1329
ag1821
ag1270
ag2251
ag1947
ag1417
ag193
ag160
ag1105
ag1794
ag2063
ag1967
ag2105
ag150
ag574
ag2150
ag151
ag677
ag1379
ag636
ag414
ag2588
ag1812
ag2307
ag368
ag1885
ag2893
ag518
ag2598
ag2287
ag675
ag2007
ag1987
ag2455
ag2184
ag420
ag573
ag1697
ag2744
ag1419
ag1099
ag2539
ag398
ag2159
ag1113
ag856
ag1511
ag435
ag1015
ag51
ag2486
ag2355
ag2072
ag456
ag761
ag2934
ag999
ag816
ag1537
ag110
ag170
ag2783
ag2938
ag2653
ag1732
ag1586
ag2053
ag2543
ag1284
ag1974
ag2736
ag1912
ag1421
ag836
ag379
ag2411
ag2116
ag2574
ag1156
ag1453
ag596
ag522
ag864
ag2768
ag2238
ag974
ag278
ag2697
ag2103
ag1996
ag2765
ag633
ag2528
ag1117
ag1239
ag2770
ag2149
ag372
ag1399
ag500
ag1735
ag2936
ag421
ag445
ag1669
ag1682
ag21
ag2673
ag122
ag2325
ag2010
ag1334
ag2380
ag1660
ag1561
ag2469
ag2572
ag2600
ag1111
ag1992
ag1765
ag1458
ag2373
ag2501
ag1705
ag169
ag2819
ag846
ag687
ag2861
ag2191
ag2488
ag424
ag572
ag2222
ag2867
ag843
ag2801
ag389
ag1350
ag2048
ag1507
ag2571
ag643
ag1600
ag1294
ag2434
ag361
ag2259
ag2362
ag1710
ag2860
ag883
ag876
ag1057
ag2426
ag1599
ag2338
ag594
ag1085
ag1397
ag1833
ag2862
ag1081
ag897
ag1471
ag2109
ag544
ag2940
ag1770
ag1037
ag133
ag464
ag2507
ag2187
ag745
ag1412
ag1405
ag1018
ag942
ag219
ag1880
ag860
ag1946
ag286
ag2753
ag224
ag1161
ag2376
ag1623
ag1327
ag1989
ag2254
ag926
ag322
ag2424
ag392
ag2552
ag519
ag1012
aS'7'
ag1976
ag2296
ag2738
ag1657
ag2814
ag2577
ag2384
ag963
ag716
ag765
ag2342
ag1404
ag1246
ag2612
ag2946
ag830
ag301
ag591
ag1427
ag2498
ag1210
ag979
ag393
ag72
ag957
ag642
ag504
ag1141
ag528
ag737
ag178
ag1103
ag1293
ag1935
ag1820
ag2561
ag2903
ag764
ag2004
ag1504
ag143
ag2374
ag315
ag1271
ag750
ag971
ag37
ag280
ag1032
ag656
ag1937
ag1470
ag908
ag2055
ag1377
ag247
ag2309
ag625
ag1995
ag1472
ag222
ag1616
ag1717
ag2668
ag91
ag1512
ag1521
ag2795
ag1448
ag1444
ag112
ag1968
ag489
ag405
ag948
ag853
ag146
ag1552
ag2623
ag1556
ag1854
ag2913
ag2677
ag2265
ag1715
ag1526
ag2188
ag1254
ag2542
ag417
ag1941
ag820
ag1841
ag25
ag584
ag2771
ag740
ag283
ag96
ag1333
ag1604
ag443
ag543
ag1245
ag2458
ag2197
ag1985
ag431
aS'9'
ag849
ag2489
ag2354
ag2607
ag210
ag2804
ag2408
ag487
ag748
ag2729
ag2947
ag1957
ag382
ag508
ag2126
ag990
ag1499
ag2323
ag531
ag1003
ag1779
ag1028
ag2823
ag1072
ag2005
ag2829
ag1460
ag465
ag994
ag454
ag1424
ag2891
ag1087
ag2341
ag2395
ag1690
ag664
ag1720
ag2526
ag1238
ag2387
ag2467
ag2566
ag45
ag1396
ag2575
ag2311
ag2046
ag213
ag536
ag1097
ag1577
ag1641
ag2897
ag331
ag727
ag2078
ag2146
ag2671
ag2000
ag2917
ag1186
ag144
ag1834
ag1309
ag1222
ag43
ag1321
ag1713
ag484
ag307
ag620
ag1962
ag1890
aS'h'
ag1939
ag319
ag916
ag477
ag1225
ag991
ag403
ag1701
ag2015
ag2640
ag2762
ag2401
ag1817
ag1869
ag304
ag746
ag956
ag1565
ag987
ag1686
ag2708
ag753
ag328
ag1241
ag1938
ag953
ag359
ag1652
ag2221
ag2201
ag1345
ag1808
ag1716
ag1932
ag776
ag1908
ag1131
ag1783
ag1762
ag2491
ag2085
ag734
ag1042
ag348
ag689
ag447
ag2877
ag1980
ag967
ag2386
ag1258
ag2189
ag2356
ag276
ag2014
ag1322
ag1053
ag2334
ag794
ag1122
ag1693
ag2578
ag2407
ag657
ag1733
ag141
ag441
ag1023
ag646
ag2255
ag2454
ag106
ag2764
ag2659
ag1477
ag2215
ag2558
ag2181
ag870
ag1392
ag1357
ag1030
ag2092
ag1401
ag44
ag998
ag565
ag1296
ag156
ag338
ag852
ag1553
ag1383
ag2213
ag1244
aS'3'
ag1262
ag1060
ag2591
ag1488
ag2809
ag546
ag2310
ag2942
ag1344
ag1147
ag2750
ag148
ag2681
ag1465
ag1970
ag718
ag719
ag2745
ag1753
ag644
ag124
ag2029
ag2247
ag1096
ag1590
ag2649
ag2951
ag2919
ag2509
ag1944
ag2123
ag1540
ag267
ag890
ag910
ag2225
ag2429
ag227
ag334
ag1376
ag1857
ag2646
ag1554
ag1004
ag453
ag595
ag1279
ag1647
ag2087
ag754
ag1868
ag444
ag752
ag898
ag488
ag2711
ag610
ag2471
ag2707
ag1359
ag1305
ag2667
ag1171
ag823
ag1158
ag992
ag1231
ag2347
ag512
ag1515
ag1502
ag1786
ag1382
ag2413
ag270
ag310
ag1876
ag841
ag1486
ag2680
ag2586
ag46
ag1306
ag2635
ag497
ag2651
ag2249
ag42
ag2335
ag2363
ag715
ag458
ag364
ag1167
ag2148
ag2283
ag2701
ag1337
ag2634
ag2202
ag950
ag2182
ag2118
ag2336
ag1492
ag2036
ag1066
ag1595
ag2546
ag2478
ag899
ag2530
ag2866
ag65
ag254
ag2687
ag2068
ag261
ag1496
ag1622
ag2453
ag2928
ag2950
ag2107
ag1849
ag452
ag1205
ag983
ag1645
ag1013
ag1895
ag492
ag1394
ag2058
ag800
ag1517
ag1558
ag1510
ag1637
ag1555
ag760
ag2886
ag2045
ag2548
ag28
ag462
ag1476
ag1836
ag2194
ag2513
ag1402
ag2675
ag287
ag1588
ag1638
ag2793
ag1960
ag2095
ag1629
ag2175
ag2645
ag1700
ag1596
ag775
ag1251
ag1311
ag567
ag2400
ag1125
ag2879
ag2317
ag1035
ag1285
ag2303
ag2024
ag2905
ag2368
ag1132
ag1591
ag2243
ag2715
ag2120
ag1958
ag1557
ag1850
ag2203
ag347
ag1263
ag866
ag260
ag1253
ag1675
ag635
ag1754
ag387
ag2056
ag2281
ag1346
ag704
ag1217
ag104
ag2773
ag525
ag2242
ag1563
ag1711
ag1672
ag1755
ag1897
ag2485
ag1806
ag2696
ag1362
ag329
ag1879
ag2331
ag1718
ag179
ag665
ag2921
ag2166
ag81
ag2527
ag2081
ag670
ag2392
ag2320
ag2881
ag174
ag1764
ag981
ag2209
ag2042
ag2812
ag2935
ag2089
ag244
ag511
ag1644
ag2459
ag1367
ag1525
ag2524
ag449
ag1514
ag885
ag2412
ag2207
ag2599
ag2388
ag1040
ag2460
ag1191
ag2371
ag1719
ag168
ag365
ag74
ag2741
ag2419
ag1523
ag2079
ag783
ag560
ag2451
ag234
ag498
ag583
ag1369
ag2316
ag1771
ag2224
ag1592
ag2503
ag2844
ag2547
ag388
ag1781
ag2132
ag2908
ag306
ag1994
ag699
ag1680
ag629
ag2328
ag1457
aS'n'
ag1889
ag2529
ag2703
ag2912
ag771
ag377
ag1582
ag808
ag2914
ag2555
ag157
ag2198
ag863
ag2629
ag2082
ag2900
ag316
aS'6'
ag2043
ag894
ag1942
ag2810
ag2136
ag619
ag2582
ag47
ag1727
ag829
ag2060
ag2619
ag784
ag2611
ag1449
ag1148
ag2709
ag428
ag2034
ag2067
ag1200
ag2592
ag2340
ag2163
ag34
ag672
ag1692
ag1211
ag194
ag2257
ag2183
ag628
ag954
ag2153
ag1430
ag332
ag2017
ag749
aS'k'
ag1386
ag2871
ag2580
ag1965
ag2497
ag2278
ag1134
ag532
ag38
ag2852
ag2402
ag135
ag2241
ag1136
ag1953
ag2016
ag1952
ag2234
ag344
ag2725
ag1143
ag2468
ag1068
ag933
ag1619
ag50
ag2803
ag1314
ag2837
ag2752
ag960
ag637
ag108
ag2405
ag917
ag2481
ag471
ag2851
ag2093
ag1451
ag402
ag2177
ag2845
ag587
ag1248
ag626
ag1316
ag540
ag1617
ag298
ag2581
ag2147
ag958
ag343
ag2054
ag2916
ag577
ag1290
ag2865
ag116
ag1150
ag337
ag1691
ag2138
ag1862
ag2020
ag782
ag271
ag1199
ag1000
ag547
ag1651
ag1076
ag1815
ag1769
ag2370
ag2482
ag121
ag27
ag483
ag2230
ag440
ag2110
ag79
ag815
ag158
ag438
ag2350
ag506
ag2727
ag479
ag1768
ag1260
ag1934
ag202
ag1029
ag2499
ag2437
ag1823
ag1855
ag819
ag1011
ag2627
ag578
ag2692
ag140
ag2037
ag494
ag2941
ag533
ag606
ag2805
ag2585
ag1360
ag1922
ag663
ag2233
ag1101
ag1197
ag2500
ag2699
ag2304
ag2289
ag1153
ag2337
ag1106
ag2299
ag1903
ag2904
ag2915
ag1110
ag2533
ag1659
ag756
ag1789
ag152
ag2778
ag1598
ag1982
ag1892
ag2652
ag738
ag2490
ag325
ag1228
ag2876
ag686
ag1208
ag1021
ag1452
ag2083
ag1437
ag717
ag777
ag1190
ag1264
ag1145
ag613
ag1415
ag1075
ag182
ag1045
ag826
ag1120
ag2859
ag2098
ag605
ag257
ag2235
ag460
ag2367
ag1265
ag888
ag1009
ag1800
ag1742
ag1559
ag1950
ag2746
ag1864
ag248
ag183
ag76
ag2381
ag1280
ag1520
ag593
ag1954
ag2743
ag1393
ag2658
ag599
ag1137
ag2112
ag355
ag1126
ag2106
ag205
ag1884
ag305
ag2113
ag77
ag363
ag1375
ag1773
ag1663
ag1374
ag1865
ag2624
ag2665
ag1991
ag2282
ag709
ag510
ag1014
ag2666
ag2780
ag1323
ag2508
ag1792
ag2621
ag1088
ag231
ag507
ag1810
ag499
ag2101
ag1998
ag1440
ag2436
ag2361
ag1406
ag744
ag1633
ag1813
ag1409
ag92
ag973
ag1212
ag1670
ag340
ag862
ag541
ag2021
ag2639
ag229
ag2557
ag1824
ag722
ag1578
ag712
ag2375
aS'w'
ag413
ag1570
ag436
ag381
ag467
ag2944
ag1544
ag2816
ag927
ag1109
ag1459
ag2372
ag2549
ag1945
ag2264
ag290
ag2559
ag2090
ag2170
ag1775
ag1463
ag2737
ag2702
ag985
ag649
ag1255
ag2579
ag1043
ag1756
ag237
ag1365
ag561
ag2807
ag102
ag2565
ag1707
ag1964
ag128
ag1575
ag303
ag2032
ag535
ag1090
ag1079
ag1747
ag2212
ag589
ag2472
ag558
ag111
ag2873
ag1801
ag707
ag220
ag434
ag2349
ag2831
ag1866
ag851
ag839
ag2466
ag2217
ag2625
ag2157
ag2418
ag228
ag1257
ag2168
ag2077
ag317
ag1002
ag801
ag1482
ag2642
ag639
ag2248
ag439
ag997
ag2742
ag946
ag569
ag2798
ag729
ag1395
ag233
ag1175
ag1816
ag2615
ag2670
ag817
ag774
ag1292
ag1505
ag1528
ag2603
ag2305
ag1975
ag1564
ag412
ag239
ag2613
ag1381
ag1911
ag2544
ag1289
ag2220
ag198
ag2717
ag2520
ag1159
ag2131
ag1038
ag358
ag964
ag545
ag2538
ag1607
ag1818
ag1662
ag1446
ag2359
ag391
ag922
ag2223
ag1572
ag1896
ag684
ag786
ag1469
ag837
ag1281
ag1077
ag1648
ag1201
ag1871
ag1480
ag2423
ag2403
ag811
ag1901
ag993
ag2660
ag2710
ag1983
ag1193
aS'2'
ag2154
ag155
ag2179
ag1297
ag2280
ag1467
ag598
ag886
ag568
ag1024
ag822
ag273
ag1666
ag1630
ag2633
ag1234
ag323
ag2425
ag1435
ag2551
ag2948
ag590
ag2284
ag2271
ag2246
ag1978
ag2315
ag1611
ag2290
ag725
ag1966
ag611
ag82
ag2268
ag2691
ag1168
ag468
ag1304
ag2231
ag2038
ag22
ag415
ag2605
ag1910
ag968
ag1914
ag1990
ag2161
ag1551
ag554
ag887
ag217
ag575
ag2884
ag2661
ag1353
ag394
ag2133
ag2129
ag733
ag1654
ag378
ag1778
ag485
ag2822
ag1324
ag1307
ag241
ag1152
ag2096
ag915
ag2262
ag2563
ag2614
ag1229
ag1130
ag2145
ag2390
ag2641
ag557
ag129
ag2256
ag2525
ag1138
ag1180
ag2164
ag582
ag941
ag1643
ag935
ag615
ag410
ag660
ag2285
ag798
ag2492
ag773
ag1408
ag1749
ag1073
ag1226
ag1363
ag1712
ag1863
ag2252
ag654
ag1098
ag1410
ag2875
ag2130
ag451
ag23
ag1909
ag1929
ag1843
ag2447
ag2476
ag2669
ag1785
ag2910
ag2383
ag2008
ag2294
ag965
ag778
ag272
ag1220
ag2406
ag1568
ag1464
ag2756
ag253
ag232
ag2716
ag1688
ag1434
ag975
ag2820
ag1441
ag878
ag482
ag1342
ag679
ag1188
ag2821
ag93
ag2679
ag1737
ag296
ag2333
ag692
ag977
ag1127
ag2339
ag386
ag893
ag2308
ag406
ag2298
ag114
ag2006
ag1829
ag2033
ag1247
ag793
ag1084
ag1541
ag1846
ag125
ag85
ag2925
ag845
ag2784
ag1474
ag2297
ag52
ag2442
ag60
ag1295
ag1478
ag2479
ag360
ag669
ag2896
ag2155
ag252
ag407
ag1063
ag524
ag1859
ag2200
ag2568
ag2009
ag2880
ag311
ag2626
ag1372
ag2205
ag2749
ag282
ag2534
ag2799
ag1426
ag1904
ag1848
ag1567
ag2899
ag2789
ag1777
ag427
ag2196
ag838
ag1674
ag920
ag682
ag2943
ag1313
ag2397
ag2122
ag1407
ag2329
ag1918
ag1587
ag534
ag844
ag2162
ag1227
ag795
ag789
ag1272
ag1303
ag919
ag2882
ag658
ag2782
ag395
ag207
ag1576
ag1907
ag616
ag1236
ag480
ag2686
ag1064
ag1121
ag2730
ag2763
ag2541
ag1581
ag1831
ag566
ag455
ag2662
ag2134
ag1414
ag57
ag1706
ag537
ag1837
ag505
ag2894
ag1054
ag342
ag2602
ag1095
ag842
ag1920
ag694
ag2302
ag1388
ag2420
ag1589
ag1286
ag236
ag245
ag2216
ag2227
ag874
ag2124
ag2358
ag190
ag743
ag2206
ag2522
ag650
ag1166
ag2417
ag614
ag493
ag459
ag2512
ag696
ag1624
ag904
ag585
ag2779
ag2128
ag1450
ag2214
ag705
ag2462
ag2920
ag655
ag2535
ag1530
ag2846
ag1500
ag2041
ag1232
ag2461
ag980
ag1803
ag930
ag1194
ag353
ag1807
ag1207
ag780
ag2827
ag2858
ag2244
ag2792
ag549
ag94
ag1825
ag2713
ag404
ag1538
ag1822
ag659
ag713
ag1140
ag1614
ag2536
ag840
ag1049
ag797
ag1373
ag1422
ag83
ag138
ag879
ag1490
ag312
ag2102
ag2855
ag1524
ag2346
ag2932
ag1468
ag400
ag2601
ag706
ag945
ag1256
ag188
ag1093
ag710
ag907
ag2923
ag804
ag1259
ag1872
ag437
ag2410
ag1905
ag2781
ag36
ag204
ag2755
ag1317
ag902
ag1961
ag321
ag2553
ag2521
ag269
ag1986
ag2069
ag1416
ag1766
ag2589
ag1653
ag2446
ag120
ag2391
ag383
ag88
ag1984
ag32
ag2849
ag2321
ag2270
ag375
ag1840
ag1847
ag1155
ag2933
ag720
ag2796
ag1061
ag509
ag2119
ag2758
ag2044
ag1269
ag2125
ag1548
ag661
aS'j'
ag201
ag1192
ag115
ag2628
ag2728
ag2279
ag821
ag216
ag2288
ag835
ag1240
ag470
ag123
ag757
ag1752
ag1348
ag602
ag2870
ag723
ag246
ag2097
ag2443
ag90
ag268
ag418
ag905
ag1527
ag2219
ag1631
ag2632
ag2704
ag475
ag55
ag576
ag1678
ag1368
ag58
ag1689
ag2748
ag142
ag187
ag1462
ag1135
ag369
ag1456
ag2878
ag2769
ag1196
ag1442
ag2414
ag996
ag681
ag1325
ag1503
ag200
ag346
ag2267
ag931
ag1310
ag1748
ag1708
ag688
ag2630
ag2385
ag2939
ag952
ag2838
ag736
ag1951
ag2344
ag2121
ag1915
ag1744
ag242
ag203
ag2724
ag1740
ag2484
ag2019
ag2364
ag2890
ag1594
ag1479
ag2722
ag2277
ag2088
ag2495
ag1580
ag1845
ag2013
ag2802
ag1882
ag530
ag285
ag1123
ag313
ag59
ag48
ag1887
ag2026
ag641
ag1763
ag2483
ag1176
ag529
ag1902
ag2545
ag2295
ag259
ag1805
ag2926
ag701
ag859
ag2115
ag1177
ag327
ag2720
ag1886
ag35
ag2562
ag1473
ag2693
ag2918
ag2790
ag1993
ag1906
ag1055
ag2895
ag99
ag1519
ag2883
ag1378
ag2949
ag2351
ag1274
ag1288
ag1948
ag2011
ag1445
ag1371
ag2260
ag2192
ag295
ag1139
ag1218
ag515
ag697
ag2828
ag2700
ag1891
ag2432
ag1020
ag850
ag1804
ag265
ag2740
ag1483
ag390
ag785
ag1170
ag1851
ag1315
ag2348
ag1560
ag362
ag781
ag339
ag1926
ag2638
ag1347
ag208
ag2210
ag1883
ag2369
ag2806
ag1683
ag2022
ag24
ag1940
ag1118
ag831
ag810
ag39
ag2127
ag250
ag2505
ag2025
ag548
ag2051
ag951
ag1301
ag2834
ag302
ag906
ag1349
ag2560
ag1034
ag698
ag1361
ag2596
ag868
ag939
ag1750
ag1007
ag2832
ag2857
ag724
ag647
ag1276
ag1162
ag882
ag2253
ag1047
ag984
ag2647
ag1338
ag256
ag2228
ag2152
ag936
ag1160
ag1494
ag463
ag683
ag2685
ag2606
ag62
ag824
ag1981
ag2706
ag1571
ag1878
ag2674
ag2396
ag1489
ag526
ag2664
ag429
ag1022
ag2760
ag627
ag1332
ag1676
ag1955
ag523
ag731
ag730
ag1282
ag2135
ag1005
ag1497
ag932
ag1695
ag2049
ag173
ag1119
ag1050
ag1185
ag2023
ag1114
ag2927
ag2721
ag901
ag818
ag2723
ag516
ag1730
ag1036
ag1291
ag1380
ag1340
ag1681
ag1493
ag1583
ag1352
ag262
ag2314
ag2002
ag1046
ag1997
ag1025
ag2734
ag1298
ag314
ag309
ag1267
ag109
ag2654
ag2609
ag2887
ag1776
ag2576
ag2683
ag1546
ag2650
ag1214
ag1900
ag634
ag1326
ag2035
ag1142
ag1277
ag2186
ag2888
ag288
ag2733
ag1655
ag1844
ag1634
ag1796
ag1278
ag351
ag1436
ag848
ag2719
ag2516
ag473
ag1237
ag78
ag768
ag2158
ag1819
ag385
ag292
ag865
ag2672
ag1108
ag101
ag61
ag2604
ag1169
ag1509
ag2637
ag2930
ag2714
ag2523
ag191
ag2195
ag2075
ag2813
ag1385
ag2444
ag2694
ag1516
ag1772
ag1626
ag1579
ag33
ag64
ag1759
ag2269
ag2139
ag691
ag751
ag995
ag419
ag2872
ag1335
ag1065
ag2324
ag1797
ag345
ag1203
ag1059
ag98
ag186
ag1398
ag1745
ag2464
ag1913
ag1447
ag972
ag119
ag341
ag2445
ag1894
ag711
ag2276
ag832
ag1549
ag580
ag31
ag2747
ag30
ag673
ag938
ag2366
ag1923
ag914
ag474
ag680
ag1751
ag2567
ag2777
ag2428
ag281
ag1391
ag1919
ag2409
ag1216
ag238
ag1931
ag1331
ag881
ag2441
ag1454
ag2456
ag1702
ag230
ag1861
ag2937
ag2909
ag1389
ag2868
ag2427
ag2114
ag1475
ag2066
ag1685
ag2326
ag1728
ag380
ag671
ag2178
ag2360
ag2826
ag542
ag601
ag1411
ag2874
ag2352
ag2515
ag1308
ag1632
ag2929
ag1972
ag153
ag513
ag166
ag1250
ag18
ag813
ag2570
ag163
ag1665
ag357
ag806
ag299
ag1089
ag2273
ag1019
ag2027
ag676
ag666
ag1852
ag408
ag2636
ag929
ag371
ag1033
ag1182
aS'g'
asbsS'max_document_length'
p2956
I100
sS'_tokenizer'
p2957
c__main__
tokenize_and_stem
p2958
sS'min_frequency'
p2959
I0
sb.